
build/program.elf:     file format elf32-littlearm


Disassembly of section .text:

00400000 <vectors>:
  400000:	20460000 	subcs	r0, r6, r0
  400004:	004001e1 	subeq	r0, r0, r1, ror #3
  400008:	0040026d 	subeq	r0, r0, sp, ror #4
  40000c:	0040026d 	subeq	r0, r0, sp, ror #4
  400010:	0040026d 	subeq	r0, r0, sp, ror #4
  400014:	0040026d 	subeq	r0, r0, sp, ror #4
  400018:	0040026d 	subeq	r0, r0, sp, ror #4
	...
  40002c:	0040026d 	subeq	r0, r0, sp, ror #4
  400030:	0040026d 	subeq	r0, r0, sp, ror #4
  400034:	00000000 	andeq	r0, r0, r0
  400038:	0040026d 	subeq	r0, r0, sp, ror #4
  40003c:	0040026d 	subeq	r0, r0, sp, ror #4
  400040:	0040026d 	subeq	r0, r0, sp, ror #4
  400044:	0040026d 	subeq	r0, r0, sp, ror #4
  400048:	0040026d 	subeq	r0, r0, sp, ror #4
  40004c:	0040026d 	subeq	r0, r0, sp, ror #4
  400050:	0040026d 	subeq	r0, r0, sp, ror #4
  400054:	0040026d 	subeq	r0, r0, sp, ror #4
  400058:	0040026d 	subeq	r0, r0, sp, ror #4
  40005c:	0040026d 	subeq	r0, r0, sp, ror #4
  400060:	0040026d 	subeq	r0, r0, sp, ror #4
  400064:	00000000 	andeq	r0, r0, r0
  400068:	0040026d 	subeq	r0, r0, sp, ror #4
  40006c:	0040026d 	subeq	r0, r0, sp, ror #4
  400070:	0040026d 	subeq	r0, r0, sp, ror #4
  400074:	0040026d 	subeq	r0, r0, sp, ror #4
  400078:	0040026d 	subeq	r0, r0, sp, ror #4
  40007c:	0040026d 	subeq	r0, r0, sp, ror #4
  400080:	0040026d 	subeq	r0, r0, sp, ror #4
  400084:	0040026d 	subeq	r0, r0, sp, ror #4
  400088:	0040026d 	subeq	r0, r0, sp, ror #4
  40008c:	0040026d 	subeq	r0, r0, sp, ror #4
  400090:	0040026d 	subeq	r0, r0, sp, ror #4
  400094:	0040026d 	subeq	r0, r0, sp, ror #4
  400098:	0040026d 	subeq	r0, r0, sp, ror #4
  40009c:	00400be1 	subeq	r0, r0, r1, ror #23
  4000a0:	0040026d 	subeq	r0, r0, sp, ror #4
  4000a4:	0040026d 	subeq	r0, r0, sp, ror #4
  4000a8:	0040026d 	subeq	r0, r0, sp, ror #4
  4000ac:	0040026d 	subeq	r0, r0, sp, ror #4
  4000b0:	0040026d 	subeq	r0, r0, sp, ror #4
  4000b4:	0040026d 	subeq	r0, r0, sp, ror #4
  4000b8:	0040026d 	subeq	r0, r0, sp, ror #4
  4000bc:	0040026d 	subeq	r0, r0, sp, ror #4
  4000c0:	0040026d 	subeq	r0, r0, sp, ror #4
  4000c4:	0040026d 	subeq	r0, r0, sp, ror #4
  4000c8:	0040026d 	subeq	r0, r0, sp, ror #4
  4000cc:	0040026d 	subeq	r0, r0, sp, ror #4
  4000d0:	00000000 	andeq	r0, r0, r0
  4000d4:	0040026d 	subeq	r0, r0, sp, ror #4
  4000d8:	00000000 	andeq	r0, r0, r0
  4000dc:	0040026d 	subeq	r0, r0, sp, ror #4
  4000e0:	0040026d 	subeq	r0, r0, sp, ror #4
  4000e4:	0040026d 	subeq	r0, r0, sp, ror #4
  4000e8:	0040026d 	subeq	r0, r0, sp, ror #4
  4000ec:	0040026d 	subeq	r0, r0, sp, ror #4
  4000f0:	0040026d 	subeq	r0, r0, sp, ror #4
  4000f4:	0040026d 	subeq	r0, r0, sp, ror #4
  4000f8:	0040026d 	subeq	r0, r0, sp, ror #4
  4000fc:	0040026d 	subeq	r0, r0, sp, ror #4
  400100:	0040026d 	subeq	r0, r0, sp, ror #4
  400104:	0040026d 	subeq	r0, r0, sp, ror #4
  400108:	0040026d 	subeq	r0, r0, sp, ror #4
  40010c:	0040026d 	subeq	r0, r0, sp, ror #4
  400110:	0040026d 	subeq	r0, r0, sp, ror #4
	...
  400120:	0040026d 	subeq	r0, r0, sp, ror #4
  400124:	0040026d 	subeq	r0, r0, sp, ror #4
  400128:	0040026d 	subeq	r0, r0, sp, ror #4
  40012c:	0040026d 	subeq	r0, r0, sp, ror #4
  400130:	0040026d 	subeq	r0, r0, sp, ror #4
  400134:	00000000 	andeq	r0, r0, r0
  400138:	0040026d 	subeq	r0, r0, sp, ror #4
  40013c:	0040026d 	subeq	r0, r0, sp, ror #4

00400140 <sysclk_init>:
  400140:	b480      	push	{r7}
  400142:	af00      	add	r7, sp, #0
  400144:	4b1f      	ldr	r3, [pc, #124]	; (4001c4 <sysclk_init+0x84>)
  400146:	f44f 4200 	mov.w	r2, #32768	; 0x8000
  40014a:	605a      	str	r2, [r3, #4]
  40014c:	4b1e      	ldr	r3, [pc, #120]	; (4001c8 <sysclk_init+0x88>)
  40014e:	4a1f      	ldr	r2, [pc, #124]	; (4001cc <sysclk_init+0x8c>)
  400150:	601a      	str	r2, [r3, #0]
  400152:	4b1f      	ldr	r3, [pc, #124]	; (4001d0 <sysclk_init+0x90>)
  400154:	4a1f      	ldr	r2, [pc, #124]	; (4001d4 <sysclk_init+0x94>)
  400156:	621a      	str	r2, [r3, #32]
  400158:	bf00      	nop
  40015a:	4b1d      	ldr	r3, [pc, #116]	; (4001d0 <sysclk_init+0x90>)
  40015c:	6e9b      	ldr	r3, [r3, #104]	; 0x68
  40015e:	f003 0301 	and.w	r3, r3, #1
  400162:	2b00      	cmp	r3, #0
  400164:	d0f9      	beq.n	40015a <sysclk_init+0x1a>
  400166:	4b1a      	ldr	r3, [pc, #104]	; (4001d0 <sysclk_init+0x90>)
  400168:	4a1b      	ldr	r2, [pc, #108]	; (4001d8 <sysclk_init+0x98>)
  40016a:	621a      	str	r2, [r3, #32]
  40016c:	bf00      	nop
  40016e:	4b18      	ldr	r3, [pc, #96]	; (4001d0 <sysclk_init+0x90>)
  400170:	6e9b      	ldr	r3, [r3, #104]	; 0x68
  400172:	f403 3380 	and.w	r3, r3, #65536	; 0x10000
  400176:	2b00      	cmp	r3, #0
  400178:	d0f9      	beq.n	40016e <sysclk_init+0x2e>
  40017a:	4b15      	ldr	r3, [pc, #84]	; (4001d0 <sysclk_init+0x90>)
  40017c:	4a17      	ldr	r2, [pc, #92]	; (4001dc <sysclk_init+0x9c>)
  40017e:	629a      	str	r2, [r3, #40]	; 0x28
  400180:	bf00      	nop
  400182:	4b13      	ldr	r3, [pc, #76]	; (4001d0 <sysclk_init+0x90>)
  400184:	6e9b      	ldr	r3, [r3, #104]	; 0x68
  400186:	f003 0302 	and.w	r3, r3, #2
  40018a:	2b00      	cmp	r3, #0
  40018c:	d0f9      	beq.n	400182 <sysclk_init+0x42>
  40018e:	4b10      	ldr	r3, [pc, #64]	; (4001d0 <sysclk_init+0x90>)
  400190:	f240 1201 	movw	r2, #257	; 0x101
  400194:	631a      	str	r2, [r3, #48]	; 0x30
  400196:	bf00      	nop
  400198:	4b0d      	ldr	r3, [pc, #52]	; (4001d0 <sysclk_init+0x90>)
  40019a:	6e9b      	ldr	r3, [r3, #104]	; 0x68
  40019c:	f003 0308 	and.w	r3, r3, #8
  4001a0:	2b00      	cmp	r3, #0
  4001a2:	d0f9      	beq.n	400198 <sysclk_init+0x58>
  4001a4:	4b0a      	ldr	r3, [pc, #40]	; (4001d0 <sysclk_init+0x90>)
  4001a6:	f44f 7281 	mov.w	r2, #258	; 0x102
  4001aa:	631a      	str	r2, [r3, #48]	; 0x30
  4001ac:	bf00      	nop
  4001ae:	4b08      	ldr	r3, [pc, #32]	; (4001d0 <sysclk_init+0x90>)
  4001b0:	6e9b      	ldr	r3, [r3, #104]	; 0x68
  4001b2:	f003 0308 	and.w	r3, r3, #8
  4001b6:	2b00      	cmp	r3, #0
  4001b8:	d0f9      	beq.n	4001ae <sysclk_init+0x6e>
  4001ba:	bf00      	nop
  4001bc:	46bd      	mov	sp, r7
  4001be:	f85d 7b04 	ldr.w	r7, [sp], #4
  4001c2:	4770      	bx	lr
  4001c4:	400e1850 	andmi	r1, lr, r0, asr r8
  4001c8:	400e0c00 	andmi	r0, lr, r0, lsl #24
  4001cc:	04000500 	streq	r0, [r0], #-1280	; 0xfffffb00
  4001d0:	400e0600 	andmi	r0, lr, r0, lsl #12
  4001d4:	00370809 	eorseq	r0, r7, r9, lsl #16
  4001d8:	01370809 	teqeq	r7, r9, lsl #16
  4001dc:	20183f01 	andscs	r3, r8, r1, lsl #30

004001e0 <irq_handler_reset>:
  4001e0:	b580      	push	{r7, lr}
  4001e2:	b082      	sub	sp, #8
  4001e4:	af00      	add	r7, sp, #0
  4001e6:	4b1a      	ldr	r3, [pc, #104]	; (400250 <irq_handler_reset+0x70>)
  4001e8:	607b      	str	r3, [r7, #4]
  4001ea:	4b1a      	ldr	r3, [pc, #104]	; (400254 <irq_handler_reset+0x74>)
  4001ec:	603b      	str	r3, [r7, #0]
  4001ee:	e007      	b.n	400200 <irq_handler_reset+0x20>
  4001f0:	683b      	ldr	r3, [r7, #0]
  4001f2:	1d1a      	adds	r2, r3, #4
  4001f4:	603a      	str	r2, [r7, #0]
  4001f6:	687a      	ldr	r2, [r7, #4]
  4001f8:	1d11      	adds	r1, r2, #4
  4001fa:	6079      	str	r1, [r7, #4]
  4001fc:	6812      	ldr	r2, [r2, #0]
  4001fe:	601a      	str	r2, [r3, #0]
  400200:	683b      	ldr	r3, [r7, #0]
  400202:	4a15      	ldr	r2, [pc, #84]	; (400258 <irq_handler_reset+0x78>)
  400204:	4293      	cmp	r3, r2
  400206:	d3f3      	bcc.n	4001f0 <irq_handler_reset+0x10>
  400208:	4b14      	ldr	r3, [pc, #80]	; (40025c <irq_handler_reset+0x7c>)
  40020a:	603b      	str	r3, [r7, #0]
  40020c:	e004      	b.n	400218 <irq_handler_reset+0x38>
  40020e:	683b      	ldr	r3, [r7, #0]
  400210:	1d1a      	adds	r2, r3, #4
  400212:	603a      	str	r2, [r7, #0]
  400214:	2200      	movs	r2, #0
  400216:	601a      	str	r2, [r3, #0]
  400218:	683b      	ldr	r3, [r7, #0]
  40021a:	4a11      	ldr	r2, [pc, #68]	; (400260 <irq_handler_reset+0x80>)
  40021c:	4293      	cmp	r3, r2
  40021e:	d3f6      	bcc.n	40020e <irq_handler_reset+0x2e>
  400220:	4a10      	ldr	r2, [pc, #64]	; (400264 <irq_handler_reset+0x84>)
  400222:	4b10      	ldr	r3, [pc, #64]	; (400264 <irq_handler_reset+0x84>)
  400224:	f8d3 3088 	ldr.w	r3, [r3, #136]	; 0x88
  400228:	f443 0370 	orr.w	r3, r3, #15728640	; 0xf00000
  40022c:	f8c2 3088 	str.w	r3, [r2, #136]	; 0x88
  400230:	f3bf 8f4f 	dsb	sy
  400234:	f3bf 8f6f 	isb	sy
  400238:	4b0a      	ldr	r3, [pc, #40]	; (400264 <irq_handler_reset+0x84>)
  40023a:	4a0b      	ldr	r2, [pc, #44]	; (400268 <irq_handler_reset+0x88>)
  40023c:	609a      	str	r2, [r3, #8]
  40023e:	f3bf 8f4f 	dsb	sy
  400242:	f3bf 8f6f 	isb	sy
  400246:	f7ff ff7b 	bl	400140 <sysclk_init>
  40024a:	f000 fd05 	bl	400c58 <main>
  40024e:	e7fe      	b.n	40024e <irq_handler_reset+0x6e>
  400250:	00401034 	subeq	r1, r0, r4, lsr r0
  400254:	20400000 	subcs	r0, r0, r0
  400258:	20400000 	subcs	r0, r0, r0
  40025c:	20400000 	subcs	r0, r0, r0
  400260:	20400014 	subcs	r0, r0, r4, lsl r0
  400264:	e000ed00 	and	lr, r0, r0, lsl #26
  400268:	00400000 	subeq	r0, r0, r0

0040026c <irq_handler_dummy>:
  40026c:	b480      	push	{r7}
  40026e:	af00      	add	r7, sp, #0
  400270:	e7fe      	b.n	400270 <irq_handler_dummy+0x4>
  400272:	ffff b480 	vraddhn.i<illegal width 128>	d27, <illegal reg q15.5>, q0

00400274 <gpio_conf>:
  400274:	b480      	push	{r7}
  400276:	b085      	sub	sp, #20
  400278:	af00      	add	r7, sp, #0
  40027a:	60f8      	str	r0, [r7, #12]
  40027c:	60b9      	str	r1, [r7, #8]
  40027e:	607a      	str	r2, [r7, #4]
  400280:	68fb      	ldr	r3, [r7, #12]
  400282:	4a91      	ldr	r2, [pc, #580]	; (4004c8 <gpio_conf+0x254>)
  400284:	4293      	cmp	r3, r2
  400286:	d10c      	bne.n	4002a2 <gpio_conf+0x2e>
  400288:	4b90      	ldr	r3, [pc, #576]	; (4004cc <gpio_conf+0x258>)
  40028a:	699b      	ldr	r3, [r3, #24]
  40028c:	f403 6380 	and.w	r3, r3, #1024	; 0x400
  400290:	2b00      	cmp	r3, #0
  400292:	d106      	bne.n	4002a2 <gpio_conf+0x2e>
  400294:	4a8d      	ldr	r2, [pc, #564]	; (4004cc <gpio_conf+0x258>)
  400296:	4b8d      	ldr	r3, [pc, #564]	; (4004cc <gpio_conf+0x258>)
  400298:	691b      	ldr	r3, [r3, #16]
  40029a:	f443 6380 	orr.w	r3, r3, #1024	; 0x400
  40029e:	6113      	str	r3, [r2, #16]
  4002a0:	e04e      	b.n	400340 <gpio_conf+0xcc>
  4002a2:	68fb      	ldr	r3, [r7, #12]
  4002a4:	4a8a      	ldr	r2, [pc, #552]	; (4004d0 <gpio_conf+0x25c>)
  4002a6:	4293      	cmp	r3, r2
  4002a8:	d118      	bne.n	4002dc <gpio_conf+0x68>
  4002aa:	4b88      	ldr	r3, [pc, #544]	; (4004cc <gpio_conf+0x258>)
  4002ac:	699b      	ldr	r3, [r3, #24]
  4002ae:	f403 6300 	and.w	r3, r3, #2048	; 0x800
  4002b2:	2b00      	cmp	r3, #0
  4002b4:	d112      	bne.n	4002dc <gpio_conf+0x68>
  4002b6:	4a85      	ldr	r2, [pc, #532]	; (4004cc <gpio_conf+0x258>)
  4002b8:	4b84      	ldr	r3, [pc, #528]	; (4004cc <gpio_conf+0x258>)
  4002ba:	691b      	ldr	r3, [r3, #16]
  4002bc:	f443 6300 	orr.w	r3, r3, #2048	; 0x800
  4002c0:	6113      	str	r3, [r2, #16]
  4002c2:	68bb      	ldr	r3, [r7, #8]
  4002c4:	f5b3 5f80 	cmp.w	r3, #4096	; 0x1000
  4002c8:	d83a      	bhi.n	400340 <gpio_conf+0xcc>
  4002ca:	4982      	ldr	r1, [pc, #520]	; (4004d4 <gpio_conf+0x260>)
  4002cc:	4b81      	ldr	r3, [pc, #516]	; (4004d4 <gpio_conf+0x260>)
  4002ce:	f8d3 2114 	ldr.w	r2, [r3, #276]	; 0x114
  4002d2:	68bb      	ldr	r3, [r7, #8]
  4002d4:	4313      	orrs	r3, r2
  4002d6:	f8c1 3114 	str.w	r3, [r1, #276]	; 0x114
  4002da:	e031      	b.n	400340 <gpio_conf+0xcc>
  4002dc:	68fb      	ldr	r3, [r7, #12]
  4002de:	4a7e      	ldr	r2, [pc, #504]	; (4004d8 <gpio_conf+0x264>)
  4002e0:	4293      	cmp	r3, r2
  4002e2:	d10c      	bne.n	4002fe <gpio_conf+0x8a>
  4002e4:	4b79      	ldr	r3, [pc, #484]	; (4004cc <gpio_conf+0x258>)
  4002e6:	699b      	ldr	r3, [r3, #24]
  4002e8:	f403 5380 	and.w	r3, r3, #4096	; 0x1000
  4002ec:	2b00      	cmp	r3, #0
  4002ee:	d106      	bne.n	4002fe <gpio_conf+0x8a>
  4002f0:	4a76      	ldr	r2, [pc, #472]	; (4004cc <gpio_conf+0x258>)
  4002f2:	4b76      	ldr	r3, [pc, #472]	; (4004cc <gpio_conf+0x258>)
  4002f4:	691b      	ldr	r3, [r3, #16]
  4002f6:	f443 5380 	orr.w	r3, r3, #4096	; 0x1000
  4002fa:	6113      	str	r3, [r2, #16]
  4002fc:	e020      	b.n	400340 <gpio_conf+0xcc>
  4002fe:	68fb      	ldr	r3, [r7, #12]
  400300:	4a76      	ldr	r2, [pc, #472]	; (4004dc <gpio_conf+0x268>)
  400302:	4293      	cmp	r3, r2
  400304:	d10c      	bne.n	400320 <gpio_conf+0xac>
  400306:	4b71      	ldr	r3, [pc, #452]	; (4004cc <gpio_conf+0x258>)
  400308:	699b      	ldr	r3, [r3, #24]
  40030a:	f403 3380 	and.w	r3, r3, #65536	; 0x10000
  40030e:	2b00      	cmp	r3, #0
  400310:	d106      	bne.n	400320 <gpio_conf+0xac>
  400312:	4a6e      	ldr	r2, [pc, #440]	; (4004cc <gpio_conf+0x258>)
  400314:	4b6d      	ldr	r3, [pc, #436]	; (4004cc <gpio_conf+0x258>)
  400316:	691b      	ldr	r3, [r3, #16]
  400318:	f443 3380 	orr.w	r3, r3, #65536	; 0x10000
  40031c:	6113      	str	r3, [r2, #16]
  40031e:	e00f      	b.n	400340 <gpio_conf+0xcc>
  400320:	68fb      	ldr	r3, [r7, #12]
  400322:	4a6f      	ldr	r2, [pc, #444]	; (4004e0 <gpio_conf+0x26c>)
  400324:	4293      	cmp	r3, r2
  400326:	d10b      	bne.n	400340 <gpio_conf+0xcc>
  400328:	4b68      	ldr	r3, [pc, #416]	; (4004cc <gpio_conf+0x258>)
  40032a:	699b      	ldr	r3, [r3, #24]
  40032c:	f403 3300 	and.w	r3, r3, #131072	; 0x20000
  400330:	2b00      	cmp	r3, #0
  400332:	d105      	bne.n	400340 <gpio_conf+0xcc>
  400334:	4a65      	ldr	r2, [pc, #404]	; (4004cc <gpio_conf+0x258>)
  400336:	4b65      	ldr	r3, [pc, #404]	; (4004cc <gpio_conf+0x258>)
  400338:	691b      	ldr	r3, [r3, #16]
  40033a:	f443 3300 	orr.w	r3, r3, #131072	; 0x20000
  40033e:	6113      	str	r3, [r2, #16]
  400340:	687b      	ldr	r3, [r7, #4]
  400342:	f003 0301 	and.w	r3, r3, #1
  400346:	2b00      	cmp	r3, #0
  400348:	d00c      	beq.n	400364 <gpio_conf+0xf0>
  40034a:	68fb      	ldr	r3, [r7, #12]
  40034c:	681a      	ldr	r2, [r3, #0]
  40034e:	68bb      	ldr	r3, [r7, #8]
  400350:	431a      	orrs	r2, r3
  400352:	68fb      	ldr	r3, [r7, #12]
  400354:	601a      	str	r2, [r3, #0]
  400356:	68fb      	ldr	r3, [r7, #12]
  400358:	695a      	ldr	r2, [r3, #20]
  40035a:	68bb      	ldr	r3, [r7, #8]
  40035c:	431a      	orrs	r2, r3
  40035e:	68fb      	ldr	r3, [r7, #12]
  400360:	615a      	str	r2, [r3, #20]
  400362:	e024      	b.n	4003ae <gpio_conf+0x13a>
  400364:	687b      	ldr	r3, [r7, #4]
  400366:	f003 0302 	and.w	r3, r3, #2
  40036a:	2b00      	cmp	r3, #0
  40036c:	d014      	beq.n	400398 <gpio_conf+0x124>
  40036e:	68fb      	ldr	r3, [r7, #12]
  400370:	681a      	ldr	r2, [r3, #0]
  400372:	68bb      	ldr	r3, [r7, #8]
  400374:	431a      	orrs	r2, r3
  400376:	68fb      	ldr	r3, [r7, #12]
  400378:	601a      	str	r2, [r3, #0]
  40037a:	68fb      	ldr	r3, [r7, #12]
  40037c:	691a      	ldr	r2, [r3, #16]
  40037e:	68bb      	ldr	r3, [r7, #8]
  400380:	431a      	orrs	r2, r3
  400382:	68fb      	ldr	r3, [r7, #12]
  400384:	611a      	str	r2, [r3, #16]
  400386:	68fb      	ldr	r3, [r7, #12]
  400388:	f8d3 20a0 	ldr.w	r2, [r3, #160]	; 0xa0
  40038c:	68bb      	ldr	r3, [r7, #8]
  40038e:	431a      	orrs	r2, r3
  400390:	68fb      	ldr	r3, [r7, #12]
  400392:	f8c3 20a0 	str.w	r2, [r3, #160]	; 0xa0
  400396:	e00a      	b.n	4003ae <gpio_conf+0x13a>
  400398:	687b      	ldr	r3, [r7, #4]
  40039a:	f003 0304 	and.w	r3, r3, #4
  40039e:	2b00      	cmp	r3, #0
  4003a0:	d005      	beq.n	4003ae <gpio_conf+0x13a>
  4003a2:	68fb      	ldr	r3, [r7, #12]
  4003a4:	685a      	ldr	r2, [r3, #4]
  4003a6:	68bb      	ldr	r3, [r7, #8]
  4003a8:	431a      	orrs	r2, r3
  4003aa:	68fb      	ldr	r3, [r7, #12]
  4003ac:	605a      	str	r2, [r3, #4]
  4003ae:	687b      	ldr	r3, [r7, #4]
  4003b0:	f003 0308 	and.w	r3, r3, #8
  4003b4:	2b00      	cmp	r3, #0
  4003b6:	d00e      	beq.n	4003d6 <gpio_conf+0x162>
  4003b8:	68fb      	ldr	r3, [r7, #12]
  4003ba:	f8d3 2090 	ldr.w	r2, [r3, #144]	; 0x90
  4003be:	68bb      	ldr	r3, [r7, #8]
  4003c0:	431a      	orrs	r2, r3
  4003c2:	68fb      	ldr	r3, [r7, #12]
  4003c4:	f8c3 2090 	str.w	r2, [r3, #144]	; 0x90
  4003c8:	68fb      	ldr	r3, [r7, #12]
  4003ca:	6e5a      	ldr	r2, [r3, #100]	; 0x64
  4003cc:	68bb      	ldr	r3, [r7, #8]
  4003ce:	431a      	orrs	r2, r3
  4003d0:	68fb      	ldr	r3, [r7, #12]
  4003d2:	665a      	str	r2, [r3, #100]	; 0x64
  4003d4:	e026      	b.n	400424 <gpio_conf+0x1b0>
  4003d6:	687b      	ldr	r3, [r7, #4]
  4003d8:	f003 0310 	and.w	r3, r3, #16
  4003dc:	2b00      	cmp	r3, #0
  4003de:	d00e      	beq.n	4003fe <gpio_conf+0x18a>
  4003e0:	68fb      	ldr	r3, [r7, #12]
  4003e2:	6e1a      	ldr	r2, [r3, #96]	; 0x60
  4003e4:	68bb      	ldr	r3, [r7, #8]
  4003e6:	431a      	orrs	r2, r3
  4003e8:	68fb      	ldr	r3, [r7, #12]
  4003ea:	661a      	str	r2, [r3, #96]	; 0x60
  4003ec:	68fb      	ldr	r3, [r7, #12]
  4003ee:	f8d3 2094 	ldr.w	r2, [r3, #148]	; 0x94
  4003f2:	68bb      	ldr	r3, [r7, #8]
  4003f4:	431a      	orrs	r2, r3
  4003f6:	68fb      	ldr	r3, [r7, #12]
  4003f8:	f8c3 2094 	str.w	r2, [r3, #148]	; 0x94
  4003fc:	e012      	b.n	400424 <gpio_conf+0x1b0>
  4003fe:	687b      	ldr	r3, [r7, #4]
  400400:	f003 0320 	and.w	r3, r3, #32
  400404:	2b00      	cmp	r3, #0
  400406:	d00d      	beq.n	400424 <gpio_conf+0x1b0>
  400408:	68fb      	ldr	r3, [r7, #12]
  40040a:	6e1a      	ldr	r2, [r3, #96]	; 0x60
  40040c:	68bb      	ldr	r3, [r7, #8]
  40040e:	431a      	orrs	r2, r3
  400410:	68fb      	ldr	r3, [r7, #12]
  400412:	661a      	str	r2, [r3, #96]	; 0x60
  400414:	68fb      	ldr	r3, [r7, #12]
  400416:	f8d3 2090 	ldr.w	r2, [r3, #144]	; 0x90
  40041a:	68bb      	ldr	r3, [r7, #8]
  40041c:	431a      	orrs	r2, r3
  40041e:	68fb      	ldr	r3, [r7, #12]
  400420:	f8c3 2090 	str.w	r2, [r3, #144]	; 0x90
  400424:	687b      	ldr	r3, [r7, #4]
  400426:	f003 0340 	and.w	r3, r3, #64	; 0x40
  40042a:	2b00      	cmp	r3, #0
  40042c:	d014      	beq.n	400458 <gpio_conf+0x1e4>
  40042e:	68fb      	ldr	r3, [r7, #12]
  400430:	681a      	ldr	r2, [r3, #0]
  400432:	68bb      	ldr	r3, [r7, #8]
  400434:	431a      	orrs	r2, r3
  400436:	68fb      	ldr	r3, [r7, #12]
  400438:	601a      	str	r2, [r3, #0]
  40043a:	68fb      	ldr	r3, [r7, #12]
  40043c:	695a      	ldr	r2, [r3, #20]
  40043e:	68bb      	ldr	r3, [r7, #8]
  400440:	431a      	orrs	r2, r3
  400442:	68fb      	ldr	r3, [r7, #12]
  400444:	615a      	str	r2, [r3, #20]
  400446:	68fb      	ldr	r3, [r7, #12]
  400448:	f8d3 2100 	ldr.w	r2, [r3, #256]	; 0x100
  40044c:	68bb      	ldr	r3, [r7, #8]
  40044e:	431a      	orrs	r2, r3
  400450:	68fb      	ldr	r3, [r7, #12]
  400452:	f8c3 2100 	str.w	r2, [r3, #256]	; 0x100
  400456:	e00d      	b.n	400474 <gpio_conf+0x200>
  400458:	687b      	ldr	r3, [r7, #4]
  40045a:	f003 0380 	and.w	r3, r3, #128	; 0x80
  40045e:	2b00      	cmp	r3, #0
  400460:	d008      	beq.n	400474 <gpio_conf+0x200>
  400462:	68fb      	ldr	r3, [r7, #12]
  400464:	f8d3 2100 	ldr.w	r2, [r3, #256]	; 0x100
  400468:	68bb      	ldr	r3, [r7, #8]
  40046a:	43db      	mvns	r3, r3
  40046c:	401a      	ands	r2, r3
  40046e:	68fb      	ldr	r3, [r7, #12]
  400470:	f8c3 2100 	str.w	r2, [r3, #256]	; 0x100
  400474:	687b      	ldr	r3, [r7, #4]
  400476:	f403 7380 	and.w	r3, r3, #256	; 0x100
  40047a:	2b00      	cmp	r3, #0
  40047c:	d012      	beq.n	4004a4 <gpio_conf+0x230>
  40047e:	68fb      	ldr	r3, [r7, #12]
  400480:	681a      	ldr	r2, [r3, #0]
  400482:	68bb      	ldr	r3, [r7, #8]
  400484:	431a      	orrs	r2, r3
  400486:	68fb      	ldr	r3, [r7, #12]
  400488:	601a      	str	r2, [r3, #0]
  40048a:	68fb      	ldr	r3, [r7, #12]
  40048c:	695a      	ldr	r2, [r3, #20]
  40048e:	68bb      	ldr	r3, [r7, #8]
  400490:	431a      	orrs	r2, r3
  400492:	68fb      	ldr	r3, [r7, #12]
  400494:	615a      	str	r2, [r3, #20]
  400496:	68fb      	ldr	r3, [r7, #12]
  400498:	6a1a      	ldr	r2, [r3, #32]
  40049a:	68bb      	ldr	r3, [r7, #8]
  40049c:	431a      	orrs	r2, r3
  40049e:	68fb      	ldr	r3, [r7, #12]
  4004a0:	621a      	str	r2, [r3, #32]
  4004a2:	e00a      	b.n	4004ba <gpio_conf+0x246>
  4004a4:	687b      	ldr	r3, [r7, #4]
  4004a6:	f403 7300 	and.w	r3, r3, #512	; 0x200
  4004aa:	2b00      	cmp	r3, #0
  4004ac:	d005      	beq.n	4004ba <gpio_conf+0x246>
  4004ae:	68fb      	ldr	r3, [r7, #12]
  4004b0:	6a1a      	ldr	r2, [r3, #32]
  4004b2:	68bb      	ldr	r3, [r7, #8]
  4004b4:	431a      	orrs	r2, r3
  4004b6:	68fb      	ldr	r3, [r7, #12]
  4004b8:	621a      	str	r2, [r3, #32]
  4004ba:	bf00      	nop
  4004bc:	3714      	adds	r7, #20
  4004be:	46bd      	mov	sp, r7
  4004c0:	f85d 7b04 	ldr.w	r7, [sp], #4
  4004c4:	4770      	bx	lr
  4004c6:	bf00      	nop
  4004c8:	400e0e00 	andmi	r0, lr, r0, lsl #28
  4004cc:	400e0600 	andmi	r0, lr, r0, lsl #12
  4004d0:	400e1000 	andmi	r1, lr, r0
  4004d4:	40088000 	andmi	r8, r8, r0
  4004d8:	400e1200 	andmi	r1, lr, r0, lsl #4
  4004dc:	400e1400 	andmi	r1, lr, r0, lsl #8
  4004e0:	400e1600 	andmi	r1, lr, r0, lsl #12

004004e4 <gpio_set>:
  4004e4:	b480      	push	{r7}
  4004e6:	b083      	sub	sp, #12
  4004e8:	af00      	add	r7, sp, #0
  4004ea:	6078      	str	r0, [r7, #4]
  4004ec:	6039      	str	r1, [r7, #0]
  4004ee:	687b      	ldr	r3, [r7, #4]
  4004f0:	683a      	ldr	r2, [r7, #0]
  4004f2:	631a      	str	r2, [r3, #48]	; 0x30
  4004f4:	bf00      	nop
  4004f6:	370c      	adds	r7, #12
  4004f8:	46bd      	mov	sp, r7
  4004fa:	f85d 7b04 	ldr.w	r7, [sp], #4
  4004fe:	4770      	bx	lr

00400500 <gpio_clr>:
  400500:	b480      	push	{r7}
  400502:	b083      	sub	sp, #12
  400504:	af00      	add	r7, sp, #0
  400506:	6078      	str	r0, [r7, #4]
  400508:	6039      	str	r1, [r7, #0]
  40050a:	687b      	ldr	r3, [r7, #4]
  40050c:	683a      	ldr	r2, [r7, #0]
  40050e:	635a      	str	r2, [r3, #52]	; 0x34
  400510:	bf00      	nop
  400512:	370c      	adds	r7, #12
  400514:	46bd      	mov	sp, r7
  400516:	f85d 7b04 	ldr.w	r7, [sp], #4
  40051a:	4770      	bx	lr

0040051c <gpio_write>:
  40051c:	b580      	push	{r7, lr}
  40051e:	b084      	sub	sp, #16
  400520:	af00      	add	r7, sp, #0
  400522:	60f8      	str	r0, [r7, #12]
  400524:	60b9      	str	r1, [r7, #8]
  400526:	4613      	mov	r3, r2
  400528:	71fb      	strb	r3, [r7, #7]
  40052a:	79fb      	ldrb	r3, [r7, #7]
  40052c:	2b00      	cmp	r3, #0
  40052e:	d004      	beq.n	40053a <gpio_write+0x1e>
  400530:	68b9      	ldr	r1, [r7, #8]
  400532:	68f8      	ldr	r0, [r7, #12]
  400534:	f7ff ffd6 	bl	4004e4 <gpio_set>
  400538:	e003      	b.n	400542 <gpio_write+0x26>
  40053a:	68b9      	ldr	r1, [r7, #8]
  40053c:	68f8      	ldr	r0, [r7, #12]
  40053e:	f7ff ffdf 	bl	400500 <gpio_clr>
  400542:	bf00      	nop
  400544:	3710      	adds	r7, #16
  400546:	46bd      	mov	sp, r7
  400548:	bd80      	pop	{r7, pc}
  40054a:	ffff b4b0 	vsri.64	d27, d16, #1

0040054c <pwm_clocks_generate>:
  40054c:	b4b0      	push	{r4, r5, r7}
  40054e:	b091      	sub	sp, #68	; 0x44
  400550:	af00      	add	r7, sp, #0
  400552:	6078      	str	r0, [r7, #4]
  400554:	4b1a      	ldr	r3, [pc, #104]	; (4005c0 <pwm_clocks_generate+0x74>)
  400556:	f107 040c 	add.w	r4, r7, #12
  40055a:	461d      	mov	r5, r3
  40055c:	cd0f      	ldmia	r5!, {r0, r1, r2, r3}
  40055e:	c40f      	stmia	r4!, {r0, r1, r2, r3}
  400560:	cd0f      	ldmia	r5!, {r0, r1, r2, r3}
  400562:	c40f      	stmia	r4!, {r0, r1, r2, r3}
  400564:	e895 0007 	ldmia.w	r5, {r0, r1, r2}
  400568:	e884 0007 	stmia.w	r4, {r0, r1, r2}
  40056c:	2300      	movs	r3, #0
  40056e:	63fb      	str	r3, [r7, #60]	; 0x3c
  400570:	6bfb      	ldr	r3, [r7, #60]	; 0x3c
  400572:	009b      	lsls	r3, r3, #2
  400574:	f107 0240 	add.w	r2, r7, #64	; 0x40
  400578:	4413      	add	r3, r2
  40057a:	f853 3c34 	ldr.w	r3, [r3, #-52]
  40057e:	4a11      	ldr	r2, [pc, #68]	; (4005c4 <pwm_clocks_generate+0x78>)
  400580:	fbb2 f2f3 	udiv	r2, r2, r3
  400584:	687b      	ldr	r3, [r7, #4]
  400586:	fbb2 f3f3 	udiv	r3, r2, r3
  40058a:	63bb      	str	r3, [r7, #56]	; 0x38
  40058c:	6bbb      	ldr	r3, [r7, #56]	; 0x38
  40058e:	f5b3 7f80 	cmp.w	r3, #256	; 0x100
  400592:	d906      	bls.n	4005a2 <pwm_clocks_generate+0x56>
  400594:	6bfb      	ldr	r3, [r7, #60]	; 0x3c
  400596:	3301      	adds	r3, #1
  400598:	63fb      	str	r3, [r7, #60]	; 0x3c
  40059a:	6bfb      	ldr	r3, [r7, #60]	; 0x3c
  40059c:	2b0a      	cmp	r3, #10
  40059e:	d9e7      	bls.n	400570 <pwm_clocks_generate+0x24>
  4005a0:	e000      	b.n	4005a4 <pwm_clocks_generate+0x58>
  4005a2:	bf00      	nop
  4005a4:	6bfb      	ldr	r3, [r7, #60]	; 0x3c
  4005a6:	2b0a      	cmp	r3, #10
  4005a8:	d804      	bhi.n	4005b4 <pwm_clocks_generate+0x68>
  4005aa:	6bfb      	ldr	r3, [r7, #60]	; 0x3c
  4005ac:	021a      	lsls	r2, r3, #8
  4005ae:	6bbb      	ldr	r3, [r7, #56]	; 0x38
  4005b0:	4313      	orrs	r3, r2
  4005b2:	e000      	b.n	4005b6 <pwm_clocks_generate+0x6a>
  4005b4:	2300      	movs	r3, #0
  4005b6:	4618      	mov	r0, r3
  4005b8:	3744      	adds	r7, #68	; 0x44
  4005ba:	46bd      	mov	sp, r7
  4005bc:	bcb0      	pop	{r4, r5, r7}
  4005be:	4770      	bx	lr
  4005c0:	00400e34 	subeq	r0, r0, r4, lsr lr
  4005c4:	08f0d180 	ldmeq	r0!, {r7, r8, ip, lr, pc}^

004005c8 <pwm_conf>:
  4005c8:	b580      	push	{r7, lr}
  4005ca:	b084      	sub	sp, #16
  4005cc:	af00      	add	r7, sp, #0
  4005ce:	6078      	str	r0, [r7, #4]
  4005d0:	6039      	str	r1, [r7, #0]
  4005d2:	687b      	ldr	r3, [r7, #4]
  4005d4:	4a14      	ldr	r2, [pc, #80]	; (400628 <pwm_conf+0x60>)
  4005d6:	4293      	cmp	r3, r2
  4005d8:	d106      	bne.n	4005e8 <pwm_conf+0x20>
  4005da:	4a14      	ldr	r2, [pc, #80]	; (40062c <pwm_conf+0x64>)
  4005dc:	4b13      	ldr	r3, [pc, #76]	; (40062c <pwm_conf+0x64>)
  4005de:	691b      	ldr	r3, [r3, #16]
  4005e0:	f043 4300 	orr.w	r3, r3, #2147483648	; 0x80000000
  4005e4:	6113      	str	r3, [r2, #16]
  4005e6:	e00b      	b.n	400600 <pwm_conf+0x38>
  4005e8:	687b      	ldr	r3, [r7, #4]
  4005ea:	4a11      	ldr	r2, [pc, #68]	; (400630 <pwm_conf+0x68>)
  4005ec:	4293      	cmp	r3, r2
  4005ee:	d115      	bne.n	40061c <pwm_conf+0x54>
  4005f0:	4a0e      	ldr	r2, [pc, #56]	; (40062c <pwm_conf+0x64>)
  4005f2:	4b0e      	ldr	r3, [pc, #56]	; (40062c <pwm_conf+0x64>)
  4005f4:	f8d3 3100 	ldr.w	r3, [r3, #256]	; 0x100
  4005f8:	f043 5380 	orr.w	r3, r3, #268435456	; 0x10000000
  4005fc:	f8c2 3100 	str.w	r3, [r2, #256]	; 0x100
  400600:	687b      	ldr	r3, [r7, #4]
  400602:	220f      	movs	r2, #15
  400604:	609a      	str	r2, [r3, #8]
  400606:	6838      	ldr	r0, [r7, #0]
  400608:	f7ff ffa0 	bl	40054c <pwm_clocks_generate>
  40060c:	60f8      	str	r0, [r7, #12]
  40060e:	68fb      	ldr	r3, [r7, #12]
  400610:	2b00      	cmp	r3, #0
  400612:	d005      	beq.n	400620 <pwm_conf+0x58>
  400614:	687b      	ldr	r3, [r7, #4]
  400616:	68fa      	ldr	r2, [r7, #12]
  400618:	601a      	str	r2, [r3, #0]
  40061a:	e002      	b.n	400622 <pwm_conf+0x5a>
  40061c:	bf00      	nop
  40061e:	e000      	b.n	400622 <pwm_conf+0x5a>
  400620:	bf00      	nop
  400622:	3710      	adds	r7, #16
  400624:	46bd      	mov	sp, r7
  400626:	bd80      	pop	{r7, pc}
  400628:	40020000 	andmi	r0, r2, r0
  40062c:	400e0600 	andmi	r0, lr, r0, lsl #12
  400630:	4005c000 	andmi	ip, r5, r0

00400634 <pwm_channel_conf>:
  400634:	b480      	push	{r7}
  400636:	b085      	sub	sp, #20
  400638:	af00      	add	r7, sp, #0
  40063a:	60f8      	str	r0, [r7, #12]
  40063c:	460b      	mov	r3, r1
  40063e:	607a      	str	r2, [r7, #4]
  400640:	72fb      	strb	r3, [r7, #11]
  400642:	7afb      	ldrb	r3, [r7, #11]
  400644:	687a      	ldr	r2, [r7, #4]
  400646:	4936      	ldr	r1, [pc, #216]	; (400720 <pwm_channel_conf+0xec>)
  400648:	f841 2023 	str.w	r2, [r1, r3, lsl #2]
  40064c:	7afb      	ldrb	r3, [r7, #11]
  40064e:	68fa      	ldr	r2, [r7, #12]
  400650:	3310      	adds	r3, #16
  400652:	015b      	lsls	r3, r3, #5
  400654:	4413      	add	r3, r2
  400656:	220b      	movs	r2, #11
  400658:	601a      	str	r2, [r3, #0]
  40065a:	7afb      	ldrb	r3, [r7, #11]
  40065c:	68fa      	ldr	r2, [r7, #12]
  40065e:	3310      	adds	r3, #16
  400660:	015b      	lsls	r3, r3, #5
  400662:	4413      	add	r3, r2
  400664:	3304      	adds	r3, #4
  400666:	2264      	movs	r2, #100	; 0x64
  400668:	601a      	str	r2, [r3, #0]
  40066a:	7afb      	ldrb	r3, [r7, #11]
  40066c:	68fa      	ldr	r2, [r7, #12]
  40066e:	015b      	lsls	r3, r3, #5
  400670:	4413      	add	r3, r2
  400672:	f503 7303 	add.w	r3, r3, #524	; 0x20c
  400676:	687a      	ldr	r2, [r7, #4]
  400678:	601a      	str	r2, [r3, #0]
  40067a:	68fb      	ldr	r3, [r7, #12]
  40067c:	2200      	movs	r2, #0
  40067e:	649a      	str	r2, [r3, #72]	; 0x48
  400680:	68fb      	ldr	r3, [r7, #12]
  400682:	6a1b      	ldr	r3, [r3, #32]
  400684:	7afa      	ldrb	r2, [r7, #11]
  400686:	2101      	movs	r1, #1
  400688:	fa01 f202 	lsl.w	r2, r1, r2
  40068c:	431a      	orrs	r2, r3
  40068e:	68fb      	ldr	r3, [r7, #12]
  400690:	621a      	str	r2, [r3, #32]
  400692:	68fb      	ldr	r3, [r7, #12]
  400694:	6e9b      	ldr	r3, [r3, #104]	; 0x68
  400696:	7afa      	ldrb	r2, [r7, #11]
  400698:	2101      	movs	r1, #1
  40069a:	4091      	lsls	r1, r2
  40069c:	7afa      	ldrb	r2, [r7, #11]
  40069e:	3210      	adds	r2, #16
  4006a0:	2001      	movs	r0, #1
  4006a2:	fa00 f202 	lsl.w	r2, r0, r2
  4006a6:	400a      	ands	r2, r1
  4006a8:	43d2      	mvns	r2, r2
  4006aa:	401a      	ands	r2, r3
  4006ac:	68fb      	ldr	r3, [r7, #12]
  4006ae:	669a      	str	r2, [r3, #104]	; 0x68
  4006b0:	68fb      	ldr	r3, [r7, #12]
  4006b2:	f8d3 30c0 	ldr.w	r3, [r3, #192]	; 0xc0
  4006b6:	7afa      	ldrb	r2, [r7, #11]
  4006b8:	2101      	movs	r1, #1
  4006ba:	4091      	lsls	r1, r2
  4006bc:	7afa      	ldrb	r2, [r7, #11]
  4006be:	3210      	adds	r2, #16
  4006c0:	2001      	movs	r0, #1
  4006c2:	fa00 f202 	lsl.w	r2, r0, r2
  4006c6:	400a      	ands	r2, r1
  4006c8:	43d2      	mvns	r2, r2
  4006ca:	401a      	ands	r2, r3
  4006cc:	68fb      	ldr	r3, [r7, #12]
  4006ce:	f8c3 20c0 	str.w	r2, [r3, #192]	; 0xc0
  4006d2:	68fb      	ldr	r3, [r7, #12]
  4006d4:	6edb      	ldr	r3, [r3, #108]	; 0x6c
  4006d6:	7afa      	ldrb	r2, [r7, #11]
  4006d8:	00d2      	lsls	r2, r2, #3
  4006da:	21ff      	movs	r1, #255	; 0xff
  4006dc:	fa01 f202 	lsl.w	r2, r1, r2
  4006e0:	43d2      	mvns	r2, r2
  4006e2:	401a      	ands	r2, r3
  4006e4:	68fb      	ldr	r3, [r7, #12]
  4006e6:	66da      	str	r2, [r3, #108]	; 0x6c
  4006e8:	7afb      	ldrb	r3, [r7, #11]
  4006ea:	7afa      	ldrb	r2, [r7, #11]
  4006ec:	68f9      	ldr	r1, [r7, #12]
  4006ee:	3210      	adds	r2, #16
  4006f0:	0152      	lsls	r2, r2, #5
  4006f2:	440a      	add	r2, r1
  4006f4:	6812      	ldr	r2, [r2, #0]
  4006f6:	f422 2200 	bic.w	r2, r2, #524288	; 0x80000
  4006fa:	68f9      	ldr	r1, [r7, #12]
  4006fc:	3310      	adds	r3, #16
  4006fe:	015b      	lsls	r3, r3, #5
  400700:	440b      	add	r3, r1
  400702:	601a      	str	r2, [r3, #0]
  400704:	7afb      	ldrb	r3, [r7, #11]
  400706:	2201      	movs	r2, #1
  400708:	fa02 f303 	lsl.w	r3, r2, r3
  40070c:	461a      	mov	r2, r3
  40070e:	68fb      	ldr	r3, [r7, #12]
  400710:	605a      	str	r2, [r3, #4]
  400712:	bf00      	nop
  400714:	3714      	adds	r7, #20
  400716:	46bd      	mov	sp, r7
  400718:	f85d 7b04 	ldr.w	r7, [sp], #4
  40071c:	4770      	bx	lr
  40071e:	bf00      	nop
  400720:	20400000 	subcs	r0, r0, r0
  400724:	ffffffff 			; <UNDEFINED> instruction: 0xffffffff

00400728 <pwm_channel_set_duty>:
  400728:	b480      	push	{r7}
  40072a:	b085      	sub	sp, #20
  40072c:	af00      	add	r7, sp, #0
  40072e:	6078      	str	r0, [r7, #4]
  400730:	460b      	mov	r3, r1
  400732:	70fb      	strb	r3, [r7, #3]
  400734:	4613      	mov	r3, r2
  400736:	70bb      	strb	r3, [r7, #2]
  400738:	78bb      	ldrb	r3, [r7, #2]
  40073a:	ee07 3a90 	vmov	s15, r3
  40073e:	eeb8 6be7 	vcvt.f64.s32	d6, s15
  400742:	ed9f 5b19 	vldr	d5, [pc, #100]	; 4007a8 <pwm_channel_set_duty+0x80>
  400746:	ee86 7b05 	vdiv.f64	d7, d6, d5
  40074a:	eef7 7bc7 	vcvt.f32.f64	s15, d7
  40074e:	edc7 7a03 	vstr	s15, [r7, #12]
  400752:	78fb      	ldrb	r3, [r7, #3]
  400754:	4a16      	ldr	r2, [pc, #88]	; (4007b0 <pwm_channel_set_duty+0x88>)
  400756:	f852 3023 	ldr.w	r3, [r2, r3, lsl #2]
  40075a:	ee07 3a90 	vmov	s15, r3
  40075e:	eeb8 7ae7 	vcvt.f32.s32	s14, s15
  400762:	78fb      	ldrb	r3, [r7, #3]
  400764:	4a12      	ldr	r2, [pc, #72]	; (4007b0 <pwm_channel_set_duty+0x88>)
  400766:	f852 3023 	ldr.w	r3, [r2, r3, lsl #2]
  40076a:	ee07 3a90 	vmov	s15, r3
  40076e:	eef8 6ae7 	vcvt.f32.s32	s13, s15
  400772:	edd7 7a03 	vldr	s15, [r7, #12]
  400776:	ee66 7aa7 	vmul.f32	s15, s13, s15
  40077a:	ee77 7a67 	vsub.f32	s15, s14, s15
  40077e:	eefc 7ae7 	vcvt.u32.f32	s15, s15
  400782:	ee17 3a90 	vmov	r3, s15
  400786:	60bb      	str	r3, [r7, #8]
  400788:	78fb      	ldrb	r3, [r7, #3]
  40078a:	687a      	ldr	r2, [r7, #4]
  40078c:	3310      	adds	r3, #16
  40078e:	015b      	lsls	r3, r3, #5
  400790:	4413      	add	r3, r2
  400792:	3304      	adds	r3, #4
  400794:	68ba      	ldr	r2, [r7, #8]
  400796:	601a      	str	r2, [r3, #0]
  400798:	bf00      	nop
  40079a:	3714      	adds	r7, #20
  40079c:	46bd      	mov	sp, r7
  40079e:	f85d 7b04 	ldr.w	r7, [sp], #4
  4007a2:	4770      	bx	lr
  4007a4:	f3af 8000 	nop.w
  4007a8:	00000000 	andeq	r0, r0, r0
  4007ac:	40590000 	subsmi	r0, r9, r0
  4007b0:	20400000 	subcs	r0, r0, r0

004007b4 <NVIC_EnableIRQ>:
  4007b4:	b480      	push	{r7}
  4007b6:	b083      	sub	sp, #12
  4007b8:	af00      	add	r7, sp, #0
  4007ba:	4603      	mov	r3, r0
  4007bc:	71fb      	strb	r3, [r7, #7]
  4007be:	4909      	ldr	r1, [pc, #36]	; (4007e4 <NVIC_EnableIRQ+0x30>)
  4007c0:	f997 3007 	ldrsb.w	r3, [r7, #7]
  4007c4:	095b      	lsrs	r3, r3, #5
  4007c6:	79fa      	ldrb	r2, [r7, #7]
  4007c8:	f002 021f 	and.w	r2, r2, #31
  4007cc:	2001      	movs	r0, #1
  4007ce:	fa00 f202 	lsl.w	r2, r0, r2
  4007d2:	f841 2023 	str.w	r2, [r1, r3, lsl #2]
  4007d6:	bf00      	nop
  4007d8:	370c      	adds	r7, #12
  4007da:	46bd      	mov	sp, r7
  4007dc:	f85d 7b04 	ldr.w	r7, [sp], #4
  4007e0:	4770      	bx	lr
  4007e2:	bf00      	nop
  4007e4:	e000e100 	and	lr, r0, r0, lsl #2

004007e8 <fast_sin>:
  4007e8:	b580      	push	{r7, lr}
  4007ea:	b0de      	sub	sp, #376	; 0x178
  4007ec:	af00      	add	r7, sp, #0
  4007ee:	1d3b      	adds	r3, r7, #4
  4007f0:	6018      	str	r0, [r3, #0]
  4007f2:	f107 030c 	add.w	r3, r7, #12
  4007f6:	4a3c      	ldr	r2, [pc, #240]	; (4008e8 <fast_sin+0x100>)
  4007f8:	4618      	mov	r0, r3
  4007fa:	4611      	mov	r1, r2
  4007fc:	f44f 73b6 	mov.w	r3, #364	; 0x16c
  400800:	461a      	mov	r2, r3
  400802:	f000 fa7d 	bl	400d00 <memcpy>
  400806:	e005      	b.n	400814 <fast_sin+0x2c>
  400808:	1d3b      	adds	r3, r7, #4
  40080a:	1d3a      	adds	r2, r7, #4
  40080c:	6812      	ldr	r2, [r2, #0]
  40080e:	f5a2 72b4 	sub.w	r2, r2, #360	; 0x168
  400812:	601a      	str	r2, [r3, #0]
  400814:	1d3b      	adds	r3, r7, #4
  400816:	681b      	ldr	r3, [r3, #0]
  400818:	f5b3 7fb4 	cmp.w	r3, #360	; 0x168
  40081c:	daf4      	bge.n	400808 <fast_sin+0x20>
  40081e:	e005      	b.n	40082c <fast_sin+0x44>
  400820:	1d3b      	adds	r3, r7, #4
  400822:	1d3a      	adds	r2, r7, #4
  400824:	6812      	ldr	r2, [r2, #0]
  400826:	f502 72b4 	add.w	r2, r2, #360	; 0x168
  40082a:	601a      	str	r2, [r3, #0]
  40082c:	1d3b      	adds	r3, r7, #4
  40082e:	681b      	ldr	r3, [r3, #0]
  400830:	2b00      	cmp	r3, #0
  400832:	dbf5      	blt.n	400820 <fast_sin+0x38>
  400834:	1d3b      	adds	r3, r7, #4
  400836:	681b      	ldr	r3, [r3, #0]
  400838:	f5b3 7fb4 	cmp.w	r3, #360	; 0x168
  40083c:	da15      	bge.n	40086a <fast_sin+0x82>
  40083e:	1d3b      	adds	r3, r7, #4
  400840:	681b      	ldr	r3, [r3, #0]
  400842:	f5b3 7f87 	cmp.w	r3, #270	; 0x10e
  400846:	db10      	blt.n	40086a <fast_sin+0x82>
  400848:	1d3b      	adds	r3, r7, #4
  40084a:	1d3a      	adds	r2, r7, #4
  40084c:	6812      	ldr	r2, [r2, #0]
  40084e:	f5c2 72b4 	rsb	r2, r2, #360	; 0x168
  400852:	601a      	str	r2, [r3, #0]
  400854:	f107 020c 	add.w	r2, r7, #12
  400858:	1d3b      	adds	r3, r7, #4
  40085a:	681b      	ldr	r3, [r3, #0]
  40085c:	009b      	lsls	r3, r3, #2
  40085e:	4413      	add	r3, r2
  400860:	edd3 7a00 	vldr	s15, [r3]
  400864:	eef1 7a67 	vneg.f32	s15, s15
  400868:	e037      	b.n	4008da <fast_sin+0xf2>
  40086a:	1d3b      	adds	r3, r7, #4
  40086c:	681b      	ldr	r3, [r3, #0]
  40086e:	f5b3 7f87 	cmp.w	r3, #270	; 0x10e
  400872:	da13      	bge.n	40089c <fast_sin+0xb4>
  400874:	1d3b      	adds	r3, r7, #4
  400876:	681b      	ldr	r3, [r3, #0]
  400878:	2bb3      	cmp	r3, #179	; 0xb3
  40087a:	dd0f      	ble.n	40089c <fast_sin+0xb4>
  40087c:	1d3b      	adds	r3, r7, #4
  40087e:	1d3a      	adds	r2, r7, #4
  400880:	6812      	ldr	r2, [r2, #0]
  400882:	3ab4      	subs	r2, #180	; 0xb4
  400884:	601a      	str	r2, [r3, #0]
  400886:	f107 020c 	add.w	r2, r7, #12
  40088a:	1d3b      	adds	r3, r7, #4
  40088c:	681b      	ldr	r3, [r3, #0]
  40088e:	009b      	lsls	r3, r3, #2
  400890:	4413      	add	r3, r2
  400892:	edd3 7a00 	vldr	s15, [r3]
  400896:	eef1 7a67 	vneg.f32	s15, s15
  40089a:	e01e      	b.n	4008da <fast_sin+0xf2>
  40089c:	1d3b      	adds	r3, r7, #4
  40089e:	681b      	ldr	r3, [r3, #0]
  4008a0:	2bb3      	cmp	r3, #179	; 0xb3
  4008a2:	dc12      	bgt.n	4008ca <fast_sin+0xe2>
  4008a4:	1d3b      	adds	r3, r7, #4
  4008a6:	681b      	ldr	r3, [r3, #0]
  4008a8:	2b5a      	cmp	r3, #90	; 0x5a
  4008aa:	dd0e      	ble.n	4008ca <fast_sin+0xe2>
  4008ac:	1d3b      	adds	r3, r7, #4
  4008ae:	1d3a      	adds	r2, r7, #4
  4008b0:	6812      	ldr	r2, [r2, #0]
  4008b2:	f1c2 02b4 	rsb	r2, r2, #180	; 0xb4
  4008b6:	601a      	str	r2, [r3, #0]
  4008b8:	f107 020c 	add.w	r2, r7, #12
  4008bc:	1d3b      	adds	r3, r7, #4
  4008be:	681b      	ldr	r3, [r3, #0]
  4008c0:	009b      	lsls	r3, r3, #2
  4008c2:	4413      	add	r3, r2
  4008c4:	edd3 7a00 	vldr	s15, [r3]
  4008c8:	e007      	b.n	4008da <fast_sin+0xf2>
  4008ca:	f107 020c 	add.w	r2, r7, #12
  4008ce:	1d3b      	adds	r3, r7, #4
  4008d0:	681b      	ldr	r3, [r3, #0]
  4008d2:	009b      	lsls	r3, r3, #2
  4008d4:	4413      	add	r3, r2
  4008d6:	edd3 7a00 	vldr	s15, [r3]
  4008da:	eeb0 0a67 	vmov.f32	s0, s15
  4008de:	f507 77bc 	add.w	r7, r7, #376	; 0x178
  4008e2:	46bd      	mov	sp, r7
  4008e4:	bd80      	pop	{r7, pc}
  4008e6:	bf00      	nop
  4008e8:	00400e60 	subeq	r0, r0, r0, ror #28

004008ec <sign>:
  4008ec:	b480      	push	{r7}
  4008ee:	b083      	sub	sp, #12
  4008f0:	af00      	add	r7, sp, #0
  4008f2:	6078      	str	r0, [r7, #4]
  4008f4:	687b      	ldr	r3, [r7, #4]
  4008f6:	2b00      	cmp	r3, #0
  4008f8:	db01      	blt.n	4008fe <sign+0x12>
  4008fa:	2301      	movs	r3, #1
  4008fc:	e001      	b.n	400902 <sign+0x16>
  4008fe:	f04f 33ff 	mov.w	r3, #4294967295
  400902:	4618      	mov	r0, r3
  400904:	370c      	adds	r7, #12
  400906:	46bd      	mov	sp, r7
  400908:	f85d 7b04 	ldr.w	r7, [sp], #4
  40090c:	4770      	bx	lr
  40090e:	ffff b580 	vabal.u<illegal width 64>	<illegal reg q13.5>, d31, d0

00400910 <motors_conf>:
  400910:	b580      	push	{r7, lr}
  400912:	b084      	sub	sp, #16
  400914:	af00      	add	r7, sp, #0
  400916:	6078      	str	r0, [r7, #4]
  400918:	4935      	ldr	r1, [pc, #212]	; (4009f0 <motors_conf+0xe0>)
  40091a:	4836      	ldr	r0, [pc, #216]	; (4009f4 <motors_conf+0xe4>)
  40091c:	f7ff fe54 	bl	4005c8 <pwm_conf>
  400920:	2300      	movs	r3, #0
  400922:	73fb      	strb	r3, [r7, #15]
  400924:	e033      	b.n	40098e <motors_conf+0x7e>
  400926:	7bfb      	ldrb	r3, [r7, #15]
  400928:	009b      	lsls	r3, r3, #2
  40092a:	687a      	ldr	r2, [r7, #4]
  40092c:	4413      	add	r3, r2
  40092e:	681b      	ldr	r3, [r3, #0]
  400930:	7d5b      	ldrb	r3, [r3, #21]
  400932:	f242 1234 	movw	r2, #8500	; 0x2134
  400936:	4619      	mov	r1, r3
  400938:	482e      	ldr	r0, [pc, #184]	; (4009f4 <motors_conf+0xe4>)
  40093a:	f7ff fe7b 	bl	400634 <pwm_channel_conf>
  40093e:	7bfb      	ldrb	r3, [r7, #15]
  400940:	009b      	lsls	r3, r3, #2
  400942:	687a      	ldr	r2, [r7, #4]
  400944:	4413      	add	r3, r2
  400946:	681b      	ldr	r3, [r3, #0]
  400948:	6858      	ldr	r0, [r3, #4]
  40094a:	7bfb      	ldrb	r3, [r7, #15]
  40094c:	009b      	lsls	r3, r3, #2
  40094e:	687a      	ldr	r2, [r7, #4]
  400950:	4413      	add	r3, r2
  400952:	681b      	ldr	r3, [r3, #0]
  400954:	689b      	ldr	r3, [r3, #8]
  400956:	2202      	movs	r2, #2
  400958:	4619      	mov	r1, r3
  40095a:	f7ff fc8b 	bl	400274 <gpio_conf>
  40095e:	7bfb      	ldrb	r3, [r7, #15]
  400960:	009b      	lsls	r3, r3, #2
  400962:	687a      	ldr	r2, [r7, #4]
  400964:	4413      	add	r3, r2
  400966:	681b      	ldr	r3, [r3, #0]
  400968:	68d8      	ldr	r0, [r3, #12]
  40096a:	7bfb      	ldrb	r3, [r7, #15]
  40096c:	009b      	lsls	r3, r3, #2
  40096e:	687a      	ldr	r2, [r7, #4]
  400970:	4413      	add	r3, r2
  400972:	681b      	ldr	r3, [r3, #0]
  400974:	6919      	ldr	r1, [r3, #16]
  400976:	7bfb      	ldrb	r3, [r7, #15]
  400978:	009b      	lsls	r3, r3, #2
  40097a:	687a      	ldr	r2, [r7, #4]
  40097c:	4413      	add	r3, r2
  40097e:	681b      	ldr	r3, [r3, #0]
  400980:	7d1b      	ldrb	r3, [r3, #20]
  400982:	461a      	mov	r2, r3
  400984:	f7ff fc76 	bl	400274 <gpio_conf>
  400988:	7bfb      	ldrb	r3, [r7, #15]
  40098a:	3301      	adds	r3, #1
  40098c:	73fb      	strb	r3, [r7, #15]
  40098e:	7bfb      	ldrb	r3, [r7, #15]
  400990:	2b03      	cmp	r3, #3
  400992:	d9c8      	bls.n	400926 <motors_conf+0x16>
  400994:	2202      	movs	r2, #2
  400996:	2108      	movs	r1, #8
  400998:	4817      	ldr	r0, [pc, #92]	; (4009f8 <motors_conf+0xe8>)
  40099a:	f7ff fc6b 	bl	400274 <gpio_conf>
  40099e:	2202      	movs	r2, #2
  4009a0:	f44f 7100 	mov.w	r1, #512	; 0x200
  4009a4:	4814      	ldr	r0, [pc, #80]	; (4009f8 <motors_conf+0xe8>)
  4009a6:	f7ff fc65 	bl	400274 <gpio_conf>
  4009aa:	2202      	movs	r2, #2
  4009ac:	f44f 3100 	mov.w	r1, #131072	; 0x20000
  4009b0:	4811      	ldr	r0, [pc, #68]	; (4009f8 <motors_conf+0xe8>)
  4009b2:	f7ff fc5f 	bl	400274 <gpio_conf>
  4009b6:	2202      	movs	r2, #2
  4009b8:	f44f 0100 	mov.w	r1, #8388608	; 0x800000
  4009bc:	480e      	ldr	r0, [pc, #56]	; (4009f8 <motors_conf+0xe8>)
  4009be:	f7ff fc59 	bl	400274 <gpio_conf>
  4009c2:	2108      	movs	r1, #8
  4009c4:	480c      	ldr	r0, [pc, #48]	; (4009f8 <motors_conf+0xe8>)
  4009c6:	f7ff fd8d 	bl	4004e4 <gpio_set>
  4009ca:	f44f 7100 	mov.w	r1, #512	; 0x200
  4009ce:	480a      	ldr	r0, [pc, #40]	; (4009f8 <motors_conf+0xe8>)
  4009d0:	f7ff fd88 	bl	4004e4 <gpio_set>
  4009d4:	f44f 3100 	mov.w	r1, #131072	; 0x20000
  4009d8:	4807      	ldr	r0, [pc, #28]	; (4009f8 <motors_conf+0xe8>)
  4009da:	f7ff fd83 	bl	4004e4 <gpio_set>
  4009de:	f44f 0100 	mov.w	r1, #8388608	; 0x800000
  4009e2:	4805      	ldr	r0, [pc, #20]	; (4009f8 <motors_conf+0xe8>)
  4009e4:	f7ff fd7e 	bl	4004e4 <gpio_set>
  4009e8:	bf00      	nop
  4009ea:	3710      	adds	r7, #16
  4009ec:	46bd      	mov	sp, r7
  4009ee:	bd80      	pop	{r7, pc}
  4009f0:	08f0d180 	ldmeq	r0!, {r7, r8, ip, lr, pc}^
  4009f4:	40020000 	andmi	r0, r2, r0
  4009f8:	400e1200 	andmi	r1, lr, r0, lsl #4

004009fc <motor_write_individual>:
  4009fc:	b084      	sub	sp, #16
  4009fe:	b580      	push	{r7, lr}
  400a00:	af00      	add	r7, sp, #0
  400a02:	f107 0e08 	add.w	lr, r7, #8
  400a06:	e88e 000f 	stmia.w	lr, {r0, r1, r2, r3}
  400a0a:	f897 3020 	ldrb.w	r3, [r7, #32]
  400a0e:	2b64      	cmp	r3, #100	; 0x64
  400a10:	d902      	bls.n	400a18 <motor_write_individual+0x1c>
  400a12:	2364      	movs	r3, #100	; 0x64
  400a14:	f887 3020 	strb.w	r3, [r7, #32]
  400a18:	f897 3020 	ldrb.w	r3, [r7, #32]
  400a1c:	77fb      	strb	r3, [r7, #31]
  400a1e:	f897 3024 	ldrb.w	r3, [r7, #36]	; 0x24
  400a22:	77bb      	strb	r3, [r7, #30]
  400a24:	68f8      	ldr	r0, [r7, #12]
  400a26:	6939      	ldr	r1, [r7, #16]
  400a28:	f897 3024 	ldrb.w	r3, [r7, #36]	; 0x24
  400a2c:	2b01      	cmp	r3, #1
  400a2e:	bf0c      	ite	eq
  400a30:	2301      	moveq	r3, #1
  400a32:	2300      	movne	r3, #0
  400a34:	b2db      	uxtb	r3, r3
  400a36:	461a      	mov	r2, r3
  400a38:	f7ff fd70 	bl	40051c <gpio_write>
  400a3c:	7f7b      	ldrb	r3, [r7, #29]
  400a3e:	2205      	movs	r2, #5
  400a40:	4619      	mov	r1, r3
  400a42:	4804      	ldr	r0, [pc, #16]	; (400a54 <motor_write_individual+0x58>)
  400a44:	f7ff fe70 	bl	400728 <pwm_channel_set_duty>
  400a48:	bf00      	nop
  400a4a:	46bd      	mov	sp, r7
  400a4c:	e8bd 4080 	ldmia.w	sp!, {r7, lr}
  400a50:	b004      	add	sp, #16
  400a52:	4770      	bx	lr
  400a54:	40020000 	andmi	r0, r2, r0

00400a58 <motors_write_direction>:
  400a58:	b590      	push	{r4, r7, lr}
  400a5a:	ed2d 8b02 	vpush	{d8}
  400a5e:	b08d      	sub	sp, #52	; 0x34
  400a60:	af04      	add	r7, sp, #16
  400a62:	6178      	str	r0, [r7, #20]
  400a64:	6139      	str	r1, [r7, #16]
  400a66:	60fa      	str	r2, [r7, #12]
  400a68:	60bb      	str	r3, [r7, #8]
  400a6a:	2300      	movs	r3, #0
  400a6c:	77bb      	strb	r3, [r7, #30]
  400a6e:	e0ab      	b.n	400bc8 <motors_write_direction+0x170>
  400a70:	7fbb      	ldrb	r3, [r7, #30]
  400a72:	009b      	lsls	r3, r3, #2
  400a74:	697a      	ldr	r2, [r7, #20]
  400a76:	4413      	add	r3, r2
  400a78:	681b      	ldr	r3, [r3, #0]
  400a7a:	781b      	ldrb	r3, [r3, #0]
  400a7c:	2b01      	cmp	r3, #1
  400a7e:	d11c      	bne.n	400aba <motors_write_direction+0x62>
  400a80:	693b      	ldr	r3, [r7, #16]
  400a82:	ee07 3a90 	vmov	s15, r3
  400a86:	eeb8 8ae7 	vcvt.f32.s32	s16, s15
  400a8a:	68fb      	ldr	r3, [r7, #12]
  400a8c:	f5a3 7396 	sub.w	r3, r3, #300	; 0x12c
  400a90:	4618      	mov	r0, r3
  400a92:	f7ff fea9 	bl	4007e8 <fast_sin>
  400a96:	eef0 7a40 	vmov.f32	s15, s0
  400a9a:	ee28 7a27 	vmul.f32	s14, s16, s15
  400a9e:	68bb      	ldr	r3, [r7, #8]
  400aa0:	ee07 3a90 	vmov	s15, r3
  400aa4:	eef8 7ae7 	vcvt.f32.s32	s15, s15
  400aa8:	ee77 7a67 	vsub.f32	s15, s14, s15
  400aac:	eefc 7ae7 	vcvt.u32.f32	s15, s15
  400ab0:	edc7 7a01 	vstr	s15, [r7, #4]
  400ab4:	793b      	ldrb	r3, [r7, #4]
  400ab6:	77fb      	strb	r3, [r7, #31]
  400ab8:	e06a      	b.n	400b90 <motors_write_direction+0x138>
  400aba:	7fbb      	ldrb	r3, [r7, #30]
  400abc:	009b      	lsls	r3, r3, #2
  400abe:	697a      	ldr	r2, [r7, #20]
  400ac0:	4413      	add	r3, r2
  400ac2:	681b      	ldr	r3, [r3, #0]
  400ac4:	781b      	ldrb	r3, [r3, #0]
  400ac6:	2b02      	cmp	r3, #2
  400ac8:	d11b      	bne.n	400b02 <motors_write_direction+0xaa>
  400aca:	693b      	ldr	r3, [r7, #16]
  400acc:	ee07 3a90 	vmov	s15, r3
  400ad0:	eeb8 8ae7 	vcvt.f32.s32	s16, s15
  400ad4:	68fb      	ldr	r3, [r7, #12]
  400ad6:	3b3c      	subs	r3, #60	; 0x3c
  400ad8:	4618      	mov	r0, r3
  400ada:	f7ff fe85 	bl	4007e8 <fast_sin>
  400ade:	eef0 7a40 	vmov.f32	s15, s0
  400ae2:	ee28 7a27 	vmul.f32	s14, s16, s15
  400ae6:	68bb      	ldr	r3, [r7, #8]
  400ae8:	ee07 3a90 	vmov	s15, r3
  400aec:	eef8 7ae7 	vcvt.f32.s32	s15, s15
  400af0:	ee77 7a27 	vadd.f32	s15, s14, s15
  400af4:	eefc 7ae7 	vcvt.u32.f32	s15, s15
  400af8:	edc7 7a01 	vstr	s15, [r7, #4]
  400afc:	793b      	ldrb	r3, [r7, #4]
  400afe:	77fb      	strb	r3, [r7, #31]
  400b00:	e046      	b.n	400b90 <motors_write_direction+0x138>
  400b02:	7fbb      	ldrb	r3, [r7, #30]
  400b04:	009b      	lsls	r3, r3, #2
  400b06:	697a      	ldr	r2, [r7, #20]
  400b08:	4413      	add	r3, r2
  400b0a:	681b      	ldr	r3, [r3, #0]
  400b0c:	781b      	ldrb	r3, [r3, #0]
  400b0e:	2b03      	cmp	r3, #3
  400b10:	d11b      	bne.n	400b4a <motors_write_direction+0xf2>
  400b12:	693b      	ldr	r3, [r7, #16]
  400b14:	ee07 3a90 	vmov	s15, r3
  400b18:	eeb8 8ae7 	vcvt.f32.s32	s16, s15
  400b1c:	68fb      	ldr	r3, [r7, #12]
  400b1e:	3be6      	subs	r3, #230	; 0xe6
  400b20:	4618      	mov	r0, r3
  400b22:	f7ff fe61 	bl	4007e8 <fast_sin>
  400b26:	eef0 7a40 	vmov.f32	s15, s0
  400b2a:	ee28 7a27 	vmul.f32	s14, s16, s15
  400b2e:	68bb      	ldr	r3, [r7, #8]
  400b30:	ee07 3a90 	vmov	s15, r3
  400b34:	eef8 7ae7 	vcvt.f32.s32	s15, s15
  400b38:	ee77 7a67 	vsub.f32	s15, s14, s15
  400b3c:	eefc 7ae7 	vcvt.u32.f32	s15, s15
  400b40:	edc7 7a01 	vstr	s15, [r7, #4]
  400b44:	793b      	ldrb	r3, [r7, #4]
  400b46:	77fb      	strb	r3, [r7, #31]
  400b48:	e022      	b.n	400b90 <motors_write_direction+0x138>
  400b4a:	7fbb      	ldrb	r3, [r7, #30]
  400b4c:	009b      	lsls	r3, r3, #2
  400b4e:	697a      	ldr	r2, [r7, #20]
  400b50:	4413      	add	r3, r2
  400b52:	681b      	ldr	r3, [r3, #0]
  400b54:	781b      	ldrb	r3, [r3, #0]
  400b56:	2b03      	cmp	r3, #3
  400b58:	d13b      	bne.n	400bd2 <motors_write_direction+0x17a>
  400b5a:	693b      	ldr	r3, [r7, #16]
  400b5c:	ee07 3a90 	vmov	s15, r3
  400b60:	eeb8 8ae7 	vcvt.f32.s32	s16, s15
  400b64:	68fb      	ldr	r3, [r7, #12]
  400b66:	3b82      	subs	r3, #130	; 0x82
  400b68:	4618      	mov	r0, r3
  400b6a:	f7ff fe3d 	bl	4007e8 <fast_sin>
  400b6e:	eef0 7a40 	vmov.f32	s15, s0
  400b72:	ee28 7a27 	vmul.f32	s14, s16, s15
  400b76:	68bb      	ldr	r3, [r7, #8]
  400b78:	ee07 3a90 	vmov	s15, r3
  400b7c:	eef8 7ae7 	vcvt.f32.s32	s15, s15
  400b80:	ee77 7a27 	vadd.f32	s15, s14, s15
  400b84:	eefc 7ae7 	vcvt.u32.f32	s15, s15
  400b88:	edc7 7a01 	vstr	s15, [r7, #4]
  400b8c:	793b      	ldrb	r3, [r7, #4]
  400b8e:	77fb      	strb	r3, [r7, #31]
  400b90:	7fbb      	ldrb	r3, [r7, #30]
  400b92:	009b      	lsls	r3, r3, #2
  400b94:	697a      	ldr	r2, [r7, #20]
  400b96:	4413      	add	r3, r2
  400b98:	681c      	ldr	r4, [r3, #0]
  400b9a:	7ffb      	ldrb	r3, [r7, #31]
  400b9c:	4618      	mov	r0, r3
  400b9e:	f7ff fea5 	bl	4008ec <sign>
  400ba2:	4603      	mov	r3, r0
  400ba4:	b2db      	uxtb	r3, r3
  400ba6:	9303      	str	r3, [sp, #12]
  400ba8:	7ffb      	ldrb	r3, [r7, #31]
  400baa:	9302      	str	r3, [sp, #8]
  400bac:	466a      	mov	r2, sp
  400bae:	f104 0310 	add.w	r3, r4, #16
  400bb2:	e893 0003 	ldmia.w	r3, {r0, r1}
  400bb6:	e882 0003 	stmia.w	r2, {r0, r1}
  400bba:	e894 000f 	ldmia.w	r4, {r0, r1, r2, r3}
  400bbe:	f7ff ff1d 	bl	4009fc <motor_write_individual>
  400bc2:	7fbb      	ldrb	r3, [r7, #30]
  400bc4:	3301      	adds	r3, #1
  400bc6:	77bb      	strb	r3, [r7, #30]
  400bc8:	7fbb      	ldrb	r3, [r7, #30]
  400bca:	2b03      	cmp	r3, #3
  400bcc:	f67f af50 	bls.w	400a70 <motors_write_direction+0x18>
  400bd0:	e000      	b.n	400bd4 <motors_write_direction+0x17c>
  400bd2:	bf00      	nop
  400bd4:	bf00      	nop
  400bd6:	3724      	adds	r7, #36	; 0x24
  400bd8:	46bd      	mov	sp, r7
  400bda:	ecbd 8b02 	vpop	{d8}
  400bde:	bd90      	pop	{r4, r7, pc}

00400be0 <irq_handler_tc0>:
  400be0:	b580      	push	{r7, lr}
  400be2:	af00      	add	r7, sp, #0
  400be4:	4b09      	ldr	r3, [pc, #36]	; (400c0c <irq_handler_tc0+0x2c>)
  400be6:	6a1b      	ldr	r3, [r3, #32]
  400be8:	f003 0310 	and.w	r3, r3, #16
  400bec:	2b00      	cmp	r3, #0
  400bee:	d00b      	beq.n	400c08 <irq_handler_tc0+0x28>
  400bf0:	4b07      	ldr	r3, [pc, #28]	; (400c10 <irq_handler_tc0+0x30>)
  400bf2:	781b      	ldrb	r3, [r3, #0]
  400bf4:	b2db      	uxtb	r3, r3
  400bf6:	43db      	mvns	r3, r3
  400bf8:	b2da      	uxtb	r2, r3
  400bfa:	4b05      	ldr	r3, [pc, #20]	; (400c10 <irq_handler_tc0+0x30>)
  400bfc:	4611      	mov	r1, r2
  400bfe:	7019      	strb	r1, [r3, #0]
  400c00:	2101      	movs	r1, #1
  400c02:	4804      	ldr	r0, [pc, #16]	; (400c14 <irq_handler_tc0+0x34>)
  400c04:	f7ff fc8a 	bl	40051c <gpio_write>
  400c08:	bf00      	nop
  400c0a:	bd80      	pop	{r7, pc}
  400c0c:	4000c000 	andmi	ip, r0, r0
  400c10:	20400010 	subcs	r0, r0, r0, lsl r0
  400c14:	400e1000 	andmi	r1, lr, r0

00400c18 <timer_conf>:
  400c18:	b580      	push	{r7, lr}
  400c1a:	af00      	add	r7, sp, #0
  400c1c:	4b0c      	ldr	r3, [pc, #48]	; (400c50 <timer_conf+0x38>)
  400c1e:	f44f 0200 	mov.w	r2, #8388608	; 0x800000
  400c22:	611a      	str	r2, [r3, #16]
  400c24:	4b0b      	ldr	r3, [pc, #44]	; (400c54 <timer_conf+0x3c>)
  400c26:	f244 0204 	movw	r2, #16388	; 0x4004
  400c2a:	605a      	str	r2, [r3, #4]
  400c2c:	4b09      	ldr	r3, [pc, #36]	; (400c54 <timer_conf+0x3c>)
  400c2e:	f649 4240 	movw	r2, #40000	; 0x9c40
  400c32:	61da      	str	r2, [r3, #28]
  400c34:	4b07      	ldr	r3, [pc, #28]	; (400c54 <timer_conf+0x3c>)
  400c36:	2205      	movs	r2, #5
  400c38:	601a      	str	r2, [r3, #0]
  400c3a:	4b06      	ldr	r3, [pc, #24]	; (400c54 <timer_conf+0x3c>)
  400c3c:	2210      	movs	r2, #16
  400c3e:	625a      	str	r2, [r3, #36]	; 0x24
  400c40:	4b04      	ldr	r3, [pc, #16]	; (400c54 <timer_conf+0x3c>)
  400c42:	2205      	movs	r2, #5
  400c44:	601a      	str	r2, [r3, #0]
  400c46:	2017      	movs	r0, #23
  400c48:	f7ff fdb4 	bl	4007b4 <NVIC_EnableIRQ>
  400c4c:	bf00      	nop
  400c4e:	bd80      	pop	{r7, pc}
  400c50:	400e0600 	andmi	r0, lr, r0, lsl #12
  400c54:	4000c000 	andmi	ip, r0, r0

00400c58 <main>:
  400c58:	b5b0      	push	{r4, r5, r7, lr}
  400c5a:	b09c      	sub	sp, #112	; 0x70
  400c5c:	af00      	add	r7, sp, #0
  400c5e:	2202      	movs	r2, #2
  400c60:	2101      	movs	r1, #1
  400c62:	4822      	ldr	r0, [pc, #136]	; (400cec <main+0x94>)
  400c64:	f7ff fb06 	bl	400274 <gpio_conf>
  400c68:	4b21      	ldr	r3, [pc, #132]	; (400cf0 <main+0x98>)
  400c6a:	f107 0458 	add.w	r4, r7, #88	; 0x58
  400c6e:	461d      	mov	r5, r3
  400c70:	cd0f      	ldmia	r5!, {r0, r1, r2, r3}
  400c72:	c40f      	stmia	r4!, {r0, r1, r2, r3}
  400c74:	e895 0003 	ldmia.w	r5, {r0, r1}
  400c78:	e884 0003 	stmia.w	r4, {r0, r1}
  400c7c:	4b1d      	ldr	r3, [pc, #116]	; (400cf4 <main+0x9c>)
  400c7e:	f107 0440 	add.w	r4, r7, #64	; 0x40
  400c82:	461d      	mov	r5, r3
  400c84:	cd0f      	ldmia	r5!, {r0, r1, r2, r3}
  400c86:	c40f      	stmia	r4!, {r0, r1, r2, r3}
  400c88:	e895 0003 	ldmia.w	r5, {r0, r1}
  400c8c:	e884 0003 	stmia.w	r4, {r0, r1}
  400c90:	4b19      	ldr	r3, [pc, #100]	; (400cf8 <main+0xa0>)
  400c92:	f107 0428 	add.w	r4, r7, #40	; 0x28
  400c96:	461d      	mov	r5, r3
  400c98:	cd0f      	ldmia	r5!, {r0, r1, r2, r3}
  400c9a:	c40f      	stmia	r4!, {r0, r1, r2, r3}
  400c9c:	e895 0003 	ldmia.w	r5, {r0, r1}
  400ca0:	e884 0003 	stmia.w	r4, {r0, r1}
  400ca4:	4b15      	ldr	r3, [pc, #84]	; (400cfc <main+0xa4>)
  400ca6:	f107 0410 	add.w	r4, r7, #16
  400caa:	461d      	mov	r5, r3
  400cac:	cd0f      	ldmia	r5!, {r0, r1, r2, r3}
  400cae:	c40f      	stmia	r4!, {r0, r1, r2, r3}
  400cb0:	e895 0003 	ldmia.w	r5, {r0, r1}
  400cb4:	e884 0003 	stmia.w	r4, {r0, r1}
  400cb8:	f107 0358 	add.w	r3, r7, #88	; 0x58
  400cbc:	603b      	str	r3, [r7, #0]
  400cbe:	f107 0328 	add.w	r3, r7, #40	; 0x28
  400cc2:	607b      	str	r3, [r7, #4]
  400cc4:	f107 0340 	add.w	r3, r7, #64	; 0x40
  400cc8:	60bb      	str	r3, [r7, #8]
  400cca:	f107 0310 	add.w	r3, r7, #16
  400cce:	60fb      	str	r3, [r7, #12]
  400cd0:	463b      	mov	r3, r7
  400cd2:	4618      	mov	r0, r3
  400cd4:	f7ff fe1c 	bl	400910 <motors_conf>
  400cd8:	4638      	mov	r0, r7
  400cda:	2300      	movs	r3, #0
  400cdc:	2200      	movs	r2, #0
  400cde:	2164      	movs	r1, #100	; 0x64
  400ce0:	f7ff feba 	bl	400a58 <motors_write_direction>
  400ce4:	f7ff ff98 	bl	400c18 <timer_conf>
  400ce8:	e7fe      	b.n	400ce8 <main+0x90>
  400cea:	bf00      	nop
  400cec:	400e1000 	andmi	r1, lr, r0
  400cf0:	00400fcc 	subeq	r0, r0, ip, asr #31
  400cf4:	00400fe4 	subeq	r0, r0, r4, ror #31
  400cf8:	00400ffc 	strdeq	r0, [r0], #-252	; 0xffffff04
  400cfc:	00401014 	subeq	r1, r0, r4, lsl r0

00400d00 <memcpy>:
  400d00:	4684      	mov	ip, r0
  400d02:	ea41 0300 	orr.w	r3, r1, r0
  400d06:	f013 0303 	ands.w	r3, r3, #3
  400d0a:	d16d      	bne.n	400de8 <memcpy+0xe8>
  400d0c:	3a40      	subs	r2, #64	; 0x40
  400d0e:	d341      	bcc.n	400d94 <memcpy+0x94>
  400d10:	f851 3b04 	ldr.w	r3, [r1], #4
  400d14:	f840 3b04 	str.w	r3, [r0], #4
  400d18:	f851 3b04 	ldr.w	r3, [r1], #4
  400d1c:	f840 3b04 	str.w	r3, [r0], #4
  400d20:	f851 3b04 	ldr.w	r3, [r1], #4
  400d24:	f840 3b04 	str.w	r3, [r0], #4
  400d28:	f851 3b04 	ldr.w	r3, [r1], #4
  400d2c:	f840 3b04 	str.w	r3, [r0], #4
  400d30:	f851 3b04 	ldr.w	r3, [r1], #4
  400d34:	f840 3b04 	str.w	r3, [r0], #4
  400d38:	f851 3b04 	ldr.w	r3, [r1], #4
  400d3c:	f840 3b04 	str.w	r3, [r0], #4
  400d40:	f851 3b04 	ldr.w	r3, [r1], #4
  400d44:	f840 3b04 	str.w	r3, [r0], #4
  400d48:	f851 3b04 	ldr.w	r3, [r1], #4
  400d4c:	f840 3b04 	str.w	r3, [r0], #4
  400d50:	f851 3b04 	ldr.w	r3, [r1], #4
  400d54:	f840 3b04 	str.w	r3, [r0], #4
  400d58:	f851 3b04 	ldr.w	r3, [r1], #4
  400d5c:	f840 3b04 	str.w	r3, [r0], #4
  400d60:	f851 3b04 	ldr.w	r3, [r1], #4
  400d64:	f840 3b04 	str.w	r3, [r0], #4
  400d68:	f851 3b04 	ldr.w	r3, [r1], #4
  400d6c:	f840 3b04 	str.w	r3, [r0], #4
  400d70:	f851 3b04 	ldr.w	r3, [r1], #4
  400d74:	f840 3b04 	str.w	r3, [r0], #4
  400d78:	f851 3b04 	ldr.w	r3, [r1], #4
  400d7c:	f840 3b04 	str.w	r3, [r0], #4
  400d80:	f851 3b04 	ldr.w	r3, [r1], #4
  400d84:	f840 3b04 	str.w	r3, [r0], #4
  400d88:	f851 3b04 	ldr.w	r3, [r1], #4
  400d8c:	f840 3b04 	str.w	r3, [r0], #4
  400d90:	3a40      	subs	r2, #64	; 0x40
  400d92:	d2bd      	bcs.n	400d10 <memcpy+0x10>
  400d94:	3230      	adds	r2, #48	; 0x30
  400d96:	d311      	bcc.n	400dbc <memcpy+0xbc>
  400d98:	f851 3b04 	ldr.w	r3, [r1], #4
  400d9c:	f840 3b04 	str.w	r3, [r0], #4
  400da0:	f851 3b04 	ldr.w	r3, [r1], #4
  400da4:	f840 3b04 	str.w	r3, [r0], #4
  400da8:	f851 3b04 	ldr.w	r3, [r1], #4
  400dac:	f840 3b04 	str.w	r3, [r0], #4
  400db0:	f851 3b04 	ldr.w	r3, [r1], #4
  400db4:	f840 3b04 	str.w	r3, [r0], #4
  400db8:	3a10      	subs	r2, #16
  400dba:	d2ed      	bcs.n	400d98 <memcpy+0x98>
  400dbc:	320c      	adds	r2, #12
  400dbe:	d305      	bcc.n	400dcc <memcpy+0xcc>
  400dc0:	f851 3b04 	ldr.w	r3, [r1], #4
  400dc4:	f840 3b04 	str.w	r3, [r0], #4
  400dc8:	3a04      	subs	r2, #4
  400dca:	d2f9      	bcs.n	400dc0 <memcpy+0xc0>
  400dcc:	3204      	adds	r2, #4
  400dce:	d008      	beq.n	400de2 <memcpy+0xe2>
  400dd0:	07d2      	lsls	r2, r2, #31
  400dd2:	bf1c      	itt	ne
  400dd4:	f811 3b01 	ldrbne.w	r3, [r1], #1
  400dd8:	f800 3b01 	strbne.w	r3, [r0], #1
  400ddc:	d301      	bcc.n	400de2 <memcpy+0xe2>
  400dde:	880b      	ldrh	r3, [r1, #0]
  400de0:	8003      	strh	r3, [r0, #0]
  400de2:	4660      	mov	r0, ip
  400de4:	4770      	bx	lr
  400de6:	bf00      	nop
  400de8:	2a08      	cmp	r2, #8
  400dea:	d313      	bcc.n	400e14 <memcpy+0x114>
  400dec:	078b      	lsls	r3, r1, #30
  400dee:	d08d      	beq.n	400d0c <memcpy+0xc>
  400df0:	f010 0303 	ands.w	r3, r0, #3
  400df4:	d08a      	beq.n	400d0c <memcpy+0xc>
  400df6:	f1c3 0304 	rsb	r3, r3, #4
  400dfa:	1ad2      	subs	r2, r2, r3
  400dfc:	07db      	lsls	r3, r3, #31
  400dfe:	bf1c      	itt	ne
  400e00:	f811 3b01 	ldrbne.w	r3, [r1], #1
  400e04:	f800 3b01 	strbne.w	r3, [r0], #1
  400e08:	d380      	bcc.n	400d0c <memcpy+0xc>
  400e0a:	f831 3b02 	ldrh.w	r3, [r1], #2
  400e0e:	f820 3b02 	strh.w	r3, [r0], #2
  400e12:	e77b      	b.n	400d0c <memcpy+0xc>
  400e14:	3a04      	subs	r2, #4
  400e16:	d3d9      	bcc.n	400dcc <memcpy+0xcc>
  400e18:	3a01      	subs	r2, #1
  400e1a:	f811 3b01 	ldrb.w	r3, [r1], #1
  400e1e:	f800 3b01 	strb.w	r3, [r0], #1
  400e22:	d2f9      	bcs.n	400e18 <memcpy+0x118>
  400e24:	780b      	ldrb	r3, [r1, #0]
  400e26:	7003      	strb	r3, [r0, #0]
  400e28:	784b      	ldrb	r3, [r1, #1]
  400e2a:	7043      	strb	r3, [r0, #1]
  400e2c:	788b      	ldrb	r3, [r1, #2]
  400e2e:	7083      	strb	r3, [r0, #2]
  400e30:	4660      	mov	r0, ip
  400e32:	4770      	bx	lr
  400e34:	00000001 	andeq	r0, r0, r1
  400e38:	00000002 	andeq	r0, r0, r2
  400e3c:	00000004 	andeq	r0, r0, r4
  400e40:	00000008 	andeq	r0, r0, r8
  400e44:	00000010 	andeq	r0, r0, r0, lsl r0
  400e48:	00000020 	andeq	r0, r0, r0, lsr #32
  400e4c:	00000040 	andeq	r0, r0, r0, asr #32
  400e50:	00000080 	andeq	r0, r0, r0, lsl #1
  400e54:	00000100 	andeq	r0, r0, r0, lsl #2
  400e58:	00000200 	andeq	r0, r0, r0, lsl #4
  400e5c:	00000400 	andeq	r0, r0, r0, lsl #8
  400e60:	00000000 	andeq	r0, r0, r0
  400e64:	3c8ef77f 	stccc	7, cr15, [lr], {127}	; 0x7f
  400e68:	3d0ef241 	sfmcc	f7, 1, [lr, #-260]	; 0xfffffefc
  400e6c:	3d565e46 	ldclcc	14, cr5, [r6, #-280]	; 0xfffffee8
  400e70:	3d8edc3c 	stccc	12, cr13, [lr, #240]	; 0xf0
  400e74:	3db27ed8 	ldccc	14, cr7, [r2, #864]!	; 0x360
  400e78:	3dd612c7 	lfmcc	f1, 2, [r6, #796]	; 0x31c
  400e7c:	3df99674 	ldclcc	6, cr9, [r9, #464]!	; 0x1d0
  400e80:	3e0e835e 	mcrcc	3, 0, r8, cr14, cr14, {2}
  400e84:	3e20303c 	mcrcc	0, 1, r3, cr0, cr12, {1}
  400e88:	3e31d0c8 	cdpcc	0, 3, cr13, cr1, cr8, {6}
  400e8c:	3e43636f 	cdpcc	3, 4, cr6, cr3, cr15, {3}
  400e90:	3e54e6e2 	cdpcc	6, 5, cr14, cr4, cr2, {7}
  400e94:	3e66598e 	vmulcc.f16	s11, s13, s28	; <UNPREDICTABLE>
  400e98:	3e77ba67 	vsubcc.f32	s23, s14, s15
  400e9c:	3e8483ed 	cdpcc	3, 8, cr8, cr4, cr13, {7}
  400ea0:	3e8d204b 	cdpcc	0, 8, cr2, cr13, cr11, {2}
  400ea4:	3e95b1c8 	cosccdm	f3, #0.0
  400ea8:	3e9e377a 	mrccc	7, 4, r3, cr14, cr10, {3}
  400eac:	3ea6b0d9 	mcrcc	0, 5, fp, cr6, cr9, {6}
  400eb0:	3eaf1d3f 	mcrcc	13, 5, r1, cr15, cr15, {1}
  400eb4:	3eb77c03 	cdpcc	12, 11, cr7, cr7, cr3, {0}
  400eb8:	3ebfcc5c 	mrccc	12, 5, ip, cr15, cr12, {2}
  400ebc:	3ec80de5 	cdpcc	13, 12, cr0, cr8, cr5, {7}
  400ec0:	3ed03fb3 	mrccc	15, 6, r3, cr0, cr3, {5}
  400ec4:	3ed86163 	cdpcc	1, 13, cr6, cr8, cr3, {3}
  400ec8:	3ee0722a 	cdpcc	2, 14, cr7, cr0, cr10, {1}
  400ecc:	3ee87161 	cdpcc	1, 14, cr7, cr8, cr1, {3}
  400ed0:	3ef05e81 	cdpcc	14, 15, cr5, cr0, cr1, {4}
  400ed4:	3ef838e3 	cdpcc	8, 15, cr3, cr8, cr3, {7}
  400ed8:	3f000000 	svccc	0x00000000
  400edc:	3f03d988 	svccc	0x0003d988
  400ee0:	3f07a8c6 	svccc	0x0007a8c6
  400ee4:	3f0b6d76 	svccc	0x000b6d76
  400ee8:	3f0f2746 	svccc	0x000f2746
  400eec:	3f12d5e0 	svccc	0x0012d5e0
  400ef0:	3f167914 	svccc	0x00167914
  400ef4:	3f1a108c 	svccc	0x001a108c
  400ef8:	3f1d9c06 	svccc	0x001d9c06
  400efc:	3f211b1e 	svccc	0x00211b1e
  400f00:	3f248dc1 	svccc	0x00248dc1
  400f04:	3f27f37c 	svccc	0x0027f37c
  400f08:	3f2b4c2b 	svccc	0x002b4c2b
  400f0c:	3f2e976c 	svccc	0x002e976c
  400f10:	3f31d51b 	svccc	0x0031d51b
  400f14:	3f3504f7 	svccc	0x003504f7
  400f18:	3f3826ab 	svccc	0x003826ab
  400f1c:	3f3b3a04 	svccc	0x003b3a04
  400f20:	3f3e3ec0 	svccc	0x003e3ec0
  400f24:	3f4134ad 	svccc	0x004134ad
  400f28:	3f441b86 	svccc	0x00441b86
  400f2c:	3f46f30a 	svccc	0x0046f30a
  400f30:	3f49bb17 	svccc	0x0049bb17
  400f34:	3f4c7369 	svccc	0x004c7369
  400f38:	3f4f1bbd 	svccc	0x004f1bbd
  400f3c:	3f51b3f2 	svccc	0x0051b3f2
  400f40:	3f543bd6 	svccc	0x00543bd6
  400f44:	3f56b325 	svccc	0x0056b325
  400f48:	3f5919ac 	svccc	0x005919ac
  400f4c:	3f5b6f4c 	svccc	0x005b6f4c
  400f50:	3f5db3e1 	svccc	0x005db3e1
  400f54:	3f5fe719 	svccc	0x005fe719
  400f58:	3f6208e1 	svccc	0x006208e1
  400f5c:	3f641909 	svccc	0x00641909
  400f60:	3f66175d 	svccc	0x0066175d
  400f64:	3f6803cd 	svccc	0x006803cd
  400f68:	3f69de27 	svccc	0x0069de27
  400f6c:	3f6ba637 	svccc	0x006ba637
  400f70:	3f6d5bee 	svccc	0x006d5bee
  400f74:	3f6eff2a 	svccc	0x006eff2a
  400f78:	3f708fb8 	svccc	0x00708fb8
  400f7c:	3f720d88 	svccc	0x00720d88
  400f80:	3f737879 	svccc	0x00737879
  400f84:	3f74d068 	svccc	0x0074d068
  400f88:	3f761544 	svccc	0x00761544
  400f8c:	3f7746ed 	svccc	0x007746ed
  400f90:	3f786552 	svccc	0x00786552
  400f94:	3f797050 	svccc	0x00797050
  400f98:	3f7a67e8 	svccc	0x007a67e8
  400f9c:	3f7b4be8 	svccc	0x007b4be8
  400fa0:	3f7c1c61 	svccc	0x007c1c61
  400fa4:	3f7cd91f 	svccc	0x007cd91f
  400fa8:	3f7d8234 	svccc	0x007d8234
  400fac:	3f7e177f 	svccc	0x007e177f
  400fb0:	3f7e98fe 	svccc	0x007e98fe
  400fb4:	3f7f06a3 	svccc	0x007f06a3
  400fb8:	3f7f605b 	svccc	0x007f605b
  400fbc:	3f7fa637 	svccc	0x007fa637
  400fc0:	3f7fd817 	svccc	0x007fd817
  400fc4:	3f7ff60a 	svccc	0x007ff60a
  400fc8:	3f800000 	svccc	0x00800000
  400fcc:	00000001 	andeq	r0, r0, r1
  400fd0:	400e1200 	andmi	r1, lr, r0, lsl #4
  400fd4:	00400000 	subeq	r0, r0, r0
  400fd8:	400e1200 	andmi	r1, lr, r0, lsl #4
  400fdc:	00002000 	andeq	r2, r0, r0
  400fe0:	00000000 	andeq	r0, r0, r0
  400fe4:	00000002 	andeq	r0, r0, r2
  400fe8:	400e1200 	andmi	r1, lr, r0, lsl #4
  400fec:	00000004 	andeq	r0, r0, r4
  400ff0:	400e0e00 	andmi	r0, lr, r0, lsl #28
  400ff4:	00000001 	andeq	r0, r0, r1
  400ff8:	00000101 	andeq	r0, r0, r1, lsl #2
  400ffc:	00000003 	andeq	r0, r0, r3
  401000:	400e1200 	andmi	r1, lr, r0, lsl #4
  401004:	00010000 	andeq	r0, r1, r0
  401008:	400e0e00 	andmi	r0, lr, r0, lsl #28
  40100c:	00008000 	andeq	r8, r0, r0
  401010:	00000201 	andeq	r0, r0, r1, lsl #4
  401014:	00000004 	andeq	r0, r0, r4
  401018:	400e1200 	andmi	r1, lr, r0, lsl #4
  40101c:	10000000 	andne	r0, r0, r0
  401020:	400e0e00 	andmi	r0, lr, r0, lsl #28
  401024:	00001000 	andeq	r1, r0, r0
  401028:	00000301 	andeq	r0, r0, r1, lsl #6

Disassembly of section .init:

0040102c <_init>:
  40102c:	b5f8      	push	{r3, r4, r5, r6, r7, lr}
  40102e:	bf00      	nop

Disassembly of section .fini:

00401030 <_fini>:
  401030:	b5f8      	push	{r3, r4, r5, r6, r7, lr}
  401032:	bf00      	nop
